
FT_Activate_Size
FT_Add_Default_Modules
FT_Add_Module
FT_Angle_Diff
FT_Atan2
FT_Attach_File
FT_Attach_Stream
FT_Bitmap_Blend
FT_Bitmap_Convert
FT_Bitmap_Copy
FT_Bitmap_Done
FT_Bitmap_Embolden
FT_Bitmap_Init
FT_Bitmap_New
FT_CeilFix
FT_Cos
FT_DivFix
FT_Done_Face
FT_Done_FreeType
FT_Done_Library
FT_Done_MM_Var
FT_Done_Size
FT_Error_String
FT_Face_GetCharVariantIndex
FT_Face_GetCharVariantIsDefault
FT_Face_GetCharsOfVariant
FT_Face_GetVariantSelectors
FT_Face_GetVariantsOfChar
FT_Face_Properties
FT_FloorFix
FT_Get_Advance
FT_Get_Advances
FT_Get_CMap_Format
FT_Get_CMap_Language_ID
FT_Get_Char_Index
FT_Get_Charmap_Index
FT_Get_Color_Glyph_ClipBox
FT_Get_Color_Glyph_Layer
FT_Get_Color_Glyph_Paint
FT_Get_Colorline_Stops
FT_Get_Default_Named_Instance
FT_Get_FSType_Flags
FT_Get_First_Char
FT_Get_Font_Format
FT_Get_Glyph_Name
FT_Get_Kerning
FT_Get_MM_Blend_Coordinates
FT_Get_MM_Var
FT_Get_MM_WeightVector
FT_Get_Module
FT_Get_Multi_Master
FT_Get_Name_Index
FT_Get_Next_Char
FT_Get_PS_Font_Info
FT_Get_PS_Font_Private
FT_Get_PS_Font_Value
FT_Get_Paint
FT_Get_Paint_Layers
FT_Get_Postscript_Name
FT_Get_Renderer
FT_Get_Sfnt_LangTag
FT_Get_Sfnt_Name
FT_Get_Sfnt_Name_Count
FT_Get_Sfnt_Table
FT_Get_SubGlyph_Info
FT_Get_Track_Kerning
FT_Get_Transform
FT_Get_TrueType_Engine_Type
FT_Get_Var_Axis_Flags
FT_Get_Var_Blend_Coordinates
FT_Get_Var_Design_Coordinates
FT_Get_X11_Font_Format
FT_GlyphSlot_Own_Bitmap
FT_Gzip_Uncompress
FT_Has_PS_Glyph_Names
FT_Init_FreeType
FT_Library_SetLcdFilter
FT_Library_SetLcdFilterWeights
FT_Library_SetLcdGeometry
FT_Library_Version
FT_List_Add
FT_List_Finalize
FT_List_Find
FT_List_Insert
FT_List_Iterate
FT_List_Remove
FT_List_Up
FT_Load_Char
FT_Load_Glyph
FT_Load_Sfnt_Table
FT_Matrix_Invert
FT_Matrix_Multiply
FT_MulDiv
FT_MulFix
FT_New_Face
FT_New_Library
FT_New_Memory_Face
FT_New_Size
FT_Open_Face
FT_Outline_Check
FT_Outline_Copy
FT_Outline_Decompose
FT_Outline_Done
FT_Outline_Embolden
FT_Outline_EmboldenXY
FT_Outline_Get_Bitmap
FT_Outline_Get_CBox
FT_Outline_Get_Orientation
FT_Outline_New
FT_Outline_Render
FT_Outline_Reverse
FT_Outline_Transform
FT_Outline_Translate
FT_Palette_Data_Get
FT_Palette_Select
FT_Palette_Set_Foreground_Color
FT_Property_Get
FT_Property_Set
FT_Reference_Face
FT_Reference_Library
FT_Remove_Module
FT_Render_Glyph
FT_Request_Size
FT_RoundFix
FT_Select_Charmap
FT_Select_Size
FT_Set_Char_Size
FT_Set_Charmap
FT_Set_Debug_Hook
FT_Set_Default_Log_Handler
FT_Set_Default_Properties
FT_Set_Log_Handler
FT_Set_MM_Blend_Coordinates
FT_Set_MM_Design_Coordinates
FT_Set_MM_WeightVector
FT_Set_Named_Instance
FT_Set_Pixel_Sizes
FT_Set_Renderer
FT_Set_Transform
FT_Set_Var_Blend_Coordinates
FT_Set_Var_Design_Coordinates
FT_Sfnt_Table_Info
FT_Sin
FT_Stream_OpenGzip
FT_Tan
FT_Trace_Set_Default_Level
FT_Trace_Set_Level
FT_Vector_From_Polar
FT_Vector_Length
FT_Vector_Polarize
FT_Vector_Rotate
FT_Vector_Transform
FT_Vector_Unit
TT_New_Context
TT_RunIns
_Z10SkRGBToHSVjjjPf
_Z12SkHSVToColorjPKf
_Z13SkPMColorGetAj
_Z13SkPMColorGetBj
_Z13SkPMColorGetGj
_Z13SkPMColorGetRj
_Z14SkStringPrintfPKcz
_Z14sk_malloc_sizePvm
_Z15sk_calloc_throwmm
_Z15sk_malloc_flagsmj
_Z15sk_malloc_throwmm
_Z16SkBlendMode_Name11SkBlendMode
_Z16SkMakeNullCanvasv
_Z16SkPMColorSetARGBhhhh
_Z16sk_out_of_memoryv
_Z16sk_realloc_throwPvm
_Z16sk_realloc_throwPvmm
_Z17SkPreMultiplyARGBjjjj
_Z17SkWriteICCProfilePK16skcms_ICCProfilePKc
_Z17SkWriteICCProfileRK22skcms_TransferFunctionRK15skcms_Matrix3x3
_Z17sk_abort_no_printv
_Z17sk_malloc_canfailmm
_Z18SkPreMultiplyColorj
_Z19SkBlendMode_AsCoeff11SkBlendModeP16SkBlendModeCoeffS1_
_Z21SkAnnotateRectWithURLP8SkCanvasRK6SkRectP6SkData
_Z24SkColorTypeBytesPerPixel11SkColorType
_Z25SkColorTypeIsAlwaysOpaque11SkColorType
_Z25SkFontMgr_New_Custom_Data6SkSpanI5sk_spI6SkDataEE
_Z26SkAnnotateNamedDestinationP8SkCanvasRK7SkPointP6SkData
_Z26SkFontMgr_New_Custom_Emptyv
_Z27SkAnnotateLinkToDestinationP8SkCanvasRK6SkRectP6SkData
_Z27SkFontScanner_Make_FreeTypev
_Z27SkMakeImageFromRasterBitmapRK8SkBitmap16SkCopyPixelsMode
_Z28SkColorTypeValidateAlphaType11SkColorType11SkAlphaTypePS0_
_Z29SkYUVColorSpaceIsLimitedRange15SkYUVColorSpace
_Z30SkFontMgr_New_Custom_DirectoryPKc
_Z36sk_report_container_overflow_and_diev
_Z7sk_freePv
_Z8SkDebugfPKcz
_Z8SkSwapRBPjPKji
_ZN10SkBlenders10ArithmeticEffffb
_ZN10SkBlurMask20ConvertRadiusToSigmaEf
_ZN10SkBlurMask20ConvertSigmaToRadiusEf
_ZN10SkChecksum6Hash32EPKvmj
_ZN10SkChecksum6Hash64EPKvmm
_ZN10SkCubicMapC1E7SkPointS0_
_ZN10SkCubicMapC2E7SkPointS0_
_ZN10SkDocument5abortEv
_ZN10SkDocument5closeEv
_ZN10SkDocument7endPageEv
_ZN10SkDocument9beginPageEffPK6SkRect
_ZN10SkDocumentC2EP9SkWStream
_ZN10SkDocumentD0Ev
_ZN10SkDocumentD1Ev
_ZN10SkDocumentD2Ev
_ZN10SkDrawable15getGenerationIDEv
_ZN10SkDrawable19makePictureSnapshotEv
_ZN10SkDrawable20approximateBytesUsedEv
_ZN10SkDrawable20notifyDrawingChangedEv
_ZN10SkDrawable21onMakePictureSnapshotEv
_ZN10SkDrawable22onApproximateBytesUsedEv
_ZN10SkDrawable4drawEP8SkCanvasPK8SkMatrix
_ZN10SkDrawable4drawEP8SkCanvasff
_ZN10SkDrawable9getBoundsEv
_ZN10SkDrawableC2Ev
_ZN10SkExecutor10GetDefaultEv
_ZN10SkExecutor10SetDefaultEPS_
_ZN10SkExecutor18MakeFIFOThreadPoolEib
_ZN10SkExecutor18MakeLIFOThreadPoolEib
_ZN10SkExecutor27MakeMultiListFIFOThreadPoolEiib
_ZN10SkExecutor27MakeMultiListLIFOThreadPoolEiib
_ZN10SkExecutorD0Ev
_ZN10SkExecutorD1Ev
_ZN10SkExecutorD2Ev
_ZN10SkGraphics14PurgeAllCachesEv
_ZN10SkGraphics14PurgeFontCacheEv
_ZN10SkGraphics16GetFontCacheUsedEv
_ZN10SkGraphics17GetFontCacheLimitEv
_ZN10SkGraphics17SetFontCacheLimitEm
_ZN10SkGraphics18PurgeResourceCacheEv
_ZN10SkGraphics20DumpMemoryStatisticsEP17SkTraceMemoryDump
_ZN10SkGraphics20PurgePinnedFontCacheEv
_ZN10SkGraphics21GetFontCacheCountUsedEv
_ZN10SkGraphics22GetFontCacheCountLimitEv
_ZN10SkGraphics22SetFontCacheCountLimitEi
_ZN10SkGraphics26GetTypefaceCacheCountLimitEv
_ZN10SkGraphics26SetTypefaceCacheCountLimitEi
_ZN10SkGraphics28GetOpenTypeSVGDecoderFactoryEv
_ZN10SkGraphics28SetOpenTypeSVGDecoderFactoryEPFSt10unique_ptrI20SkOpenTypeSVGDecoderSt14default_deleteIS1_EEPKhmE
_ZN10SkGraphics30GetResourceCacheTotalByteLimitEv
_ZN10SkGraphics30GetResourceCacheTotalBytesUsedEv
_ZN10SkGraphics30SetResourceCacheTotalByteLimitEm
_ZN10SkGraphics39SetImageGeneratorFromEncodedDataFactoryEPFSt10unique_ptrI16SkImageGeneratorSt14default_deleteIS1_EE5sk_spI6SkDataEE
_ZN10SkGraphics41GetResourceCacheSingleAllocationByteLimitEv
_ZN10SkGraphics41SetResourceCacheSingleAllocationByteLimitEm
_ZN10SkGraphics4InitEv
_ZN10SkPathIter4nextEv
_ZN10SkPixelRef12setImmutableEv
_ZN10SkPixelRef13needsNewGenIDEv
_ZN10SkPixelRef17restoreMutabilityEv
_ZN10SkPixelRef18android_only_resetEiim
_ZN10SkPixelRef18setImmutableWithIDEj
_ZN10SkPixelRef19notifyPixelsChangedEv
_ZN10SkPixelRef22addGenIDChangeListenerE5sk_spI18SkIDChangeListenerE
_ZN10SkPixelRef23setTemporarilyImmutableEv
_ZN10SkPixelRef24callGenIDChangeListenersEv
_ZN10SkPixelRefC1EiiPvm
_ZN10SkPixelRefC2EiiPvm
_ZN10SkPixelRefD0Ev
_ZN10SkPixelRefD1Ev
_ZN10SkPixelRefD2Ev
_ZN10SkSpinlock16contendedAcquireEv
_ZN10SkSurfaces10WrapPixelsERK11SkImageInfoPvmPFvS3_S3_ES3_PK14SkSurfaceProps
_ZN10SkSurfaces10WrapPixelsERK11SkImageInfoPvmPK14SkSurfaceProps
_ZN10SkSurfaces11ResolveMSAAEP9SkSurface
_ZN10SkSurfaces12RenderTargetEP18GrRecordingContextN5skgpu8BudgetedERK11SkImageInfoi15GrSurfaceOriginPK14SkSurfacePropsbb
_ZN10SkSurfaces12RenderTargetEP18GrRecordingContextRK25GrSurfaceCharacterizationN5skgpu8BudgetedE
_ZN10SkSurfaces17GetBackendTextureEP9SkSurfaceNS0_19BackendHandleAccessE
_ZN10SkSurfaces18WrapBackendTextureEP18GrRecordingContextRK16GrBackendTexture15GrSurfaceOrigini11SkColorType5sk_spI12SkColorSpaceEPK14SkSurfacePropsPFvPvESD_
_ZN10SkSurfaces22GetBackendRenderTargetEP9SkSurfaceNS0_19BackendHandleAccessE
_ZN10SkSurfaces23WrapBackendRenderTargetEP18GrRecordingContextRK21GrBackendRenderTarget15GrSurfaceOrigin11SkColorType5sk_spI12SkColorSpaceEPK14SkSurfacePropsPFvPvESD_
_ZN10SkSurfaces4NullEii
_ZN10SkSurfaces6RasterERK11SkImageInfomPK14SkSurfaceProps
_ZN10SkTextBlob11DeserializeEPKvmRK15SkDeserialProcs
_ZN10SkTextBlob12MakeFromTextEPKvmRK6SkFont14SkTextEncoding
_ZN10SkTextBlob15MakeFromPosTextEPKvm6SkSpanIK7SkPointERK6SkFont14SkTextEncoding
_ZN10SkTextBlob15MakeFromRSXformEPKvm6SkSpanIK9SkRSXformERK6SkFont14SkTextEncoding
_ZN10SkTextBlob15ScalarsPerGlyphENS_16GlyphPositioningE
_ZN10SkTextBlob16MakeFromPosTextHEPKvm6SkSpanIKfEfRK6SkFont14SkTextEncoding
_ZN10SkTextBlob4Iter16experimentalNextEPNS0_15ExperimentalRunE
_ZN10SkTextBlob4Iter4nextEPNS0_3RunE
_ZN10SkTextBlob4IterC1ERKS_
_ZN10SkTextBlob4IterC2ERKS_
_ZN10SkTextBlob9RunRecord11StorageSizeEjjNS_16GlyphPositioningEP10SkSafeMath
_ZN10SkTextBlob9RunRecord13NextUncheckedEPKS0_
_ZN10SkTextBlob9RunRecord4NextEPKS0_
_ZN10SkTextBlob9RunRecord4growEj
_ZN10SkTextBlob9RunRecord5FirstEPKS_
_ZN10SkTextBlob9RunRecord8PosCountEjNS_16GlyphPositioningEP10SkSafeMath
_ZN10SkTextBlobC1ERK6SkRect
_ZN10SkTextBlobC2ERK6SkRect
_ZN10SkTextBlobD1Ev
_ZN10SkTextBlobD2Ev
_ZN10SkTextBlobdlEPv
_ZN10SkTextBlobnwEm
_ZN10SkTextBlobnwEmPv
_ZN10SkTypeface15MakeDeserializeEP8SkStream5sk_spI9SkFontMgrE
_ZN10SkTypeface5EqualEPKS_S1_
_ZN10SkTypeface8RegisterEjPF5sk_spIS_ESt10unique_ptrI13SkStreamAssetSt14default_deleteIS3_EERK15SkFontArgumentsE
_ZN10SkTypeface9MakeEmptyEv
_ZN10SkTypefaceC2ERK11SkFontStyleb
_ZN10SkTypefaceD0Ev
_ZN10SkTypefaceD1Ev
_ZN10SkTypefaceD2Ev
_ZN10SkVertices7Builder4initERKNS_4DescE
_ZN10SkVertices7Builder6colorsEv
_ZN10SkVertices7Builder6detachEv
_ZN10SkVertices7Builder7indicesEv
_ZN10SkVertices7Builder9positionsEv
_ZN10SkVertices7Builder9texCoordsEv
_ZN10SkVertices7BuilderC1ENS_10VertexModeEiij
_ZN10SkVertices7BuilderC1ERKNS_4DescE
_ZN10SkVertices7BuilderC2ENS_10VertexModeEiij
_ZN10SkVertices7BuilderC2ERKNS_4DescE
_ZN10SkVertices8MakeCopyENS_10VertexModeEiPK7SkPointS3_PKjiPKt
_ZN10SkVerticesdlEPv
_ZN10SkYUVAInfo15PlaneDimensionsE7SkISizeNS_11PlaneConfigENS_11SubsamplingE15SkEncodedOriginPS0_
_ZN10SkYUVAInfo16GetYUVALocationsENS_11PlaneConfigEPKj
_ZN10SkYUVAInfo18SubsamplingFactorsENS_11SubsamplingE
_ZN10SkYUVAInfo23PlaneSubsamplingFactorsENS_11PlaneConfigENS_11SubsamplingEi
_ZN10SkYUVAInfo8HasAlphaENS_11PlaneConfigE
_ZN10SkYUVAInfoC1E7SkISizeNS_11PlaneConfigENS_11SubsamplingE15SkYUVColorSpace15SkEncodedOriginNS_6SitingES5_
_ZN10SkYUVAInfoC2E7SkISizeNS_11PlaneConfigENS_11SubsamplingE15SkYUVColorSpace15SkEncodedOriginNS_6SitingES5_
_ZN11SkColorInfoC1E11SkColorType11SkAlphaType5sk_spI12SkColorSpaceE
_ZN11SkColorInfoC1EOS_
_ZN11SkColorInfoC1ERKS_
_ZN11SkColorInfoC1Ev
_ZN11SkColorInfoC2E11SkColorType11SkAlphaType5sk_spI12SkColorSpaceE
_ZN11SkColorInfoC2EOS_
_ZN11SkColorInfoC2ERKS_
_ZN11SkColorInfoC2Ev
_ZN11SkColorInfoD1Ev
_ZN11SkColorInfoD2Ev
_ZN11SkColorInfoaSEOS_
_ZN11SkColorInfoaSERKS_
_ZN11SkDataTable13MakeArrayProcEPKvmiPFvPvES2_
_ZN11SkDataTable13MakeCopyArrayEPKvmi
_ZN11SkDataTable14MakeCopyArraysEPKPKvPKmi
_ZN11SkDataTable9MakeEmptyEv
_ZN11SkDataTableC1EPKNS_3DirEiPFvPvES3_
_ZN11SkDataTableC1EPKvmiPFvPvES2_
_ZN11SkDataTableC1Ev
_ZN11SkDataTableC2EPKNS_3DirEiPFvPvES3_
_ZN11SkDataTableC2EPKvmiPFvPvES2_
_ZN11SkDataTableC2Ev
_ZN11SkDataTableD0Ev
_ZN11SkDataTableD1Ev
_ZN11SkDataTableD2Ev
_ZN11SkImageInfo11MakeUnknownEii
_ZN11SkImageInfo13MakeN32PremulE7SkISize
_ZN11SkImageInfo13MakeN32PremulE7SkISize5sk_spI12SkColorSpaceE
_ZN11SkImageInfo13MakeN32PremulEii
_ZN11SkImageInfo13MakeN32PremulEii5sk_spI12SkColorSpaceE
_ZN11SkImageInfo4MakeE7SkISize11SkColorType11SkAlphaType
_ZN11SkImageInfo4MakeE7SkISize11SkColorType11SkAlphaType5sk_spI12SkColorSpaceE
_ZN11SkImageInfo4MakeEii11SkColorType11SkAlphaType
_ZN11SkImageInfo4MakeEii11SkColorType11SkAlphaType5sk_spI12SkColorSpaceE
_ZN11SkImageInfo6MakeA8E7SkISize
_ZN11SkImageInfo6MakeA8Eii
_ZN11SkImageInfo7MakeN32Eii11SkAlphaType
_ZN11SkImageInfo7MakeN32Eii11SkAlphaType5sk_spI12SkColorSpaceE
_ZN11SkImageInfo7MakeS32Eii11SkAlphaType
_ZN11SkParsePath11ToSVGStringERK6SkPathNS_12PathEncodingE
_ZN11SkParsePath13FromSVGStringEPKc
_ZN11SkSVGCanvas4MakeERK6SkRectP9SkWStreamNS_7OptionsE
_ZN11SkSVGCanvas4MakeERK6SkRectP9SkWStreamj
_ZN11SkSemaphore6osWaitEv
_ZN11SkSemaphore8osSignalEi
_ZN11SkSemaphore8try_waitEv
_ZN11SkSemaphoreD1Ev
_ZN11SkSemaphoreD2Ev
_ZN11SkStrokeRec12setFillStyleEv
_ZN11SkStrokeRec14setStrokeStyleEfb
_ZN11SkStrokeRec16setHairlineStyleEv
_ZN11SkStrokeRec18GetInflationRadiusEN7SkPaint4JoinEfNS0_3CapEf
_ZN11SkStrokeRec18GetInflationRadiusERK7SkPaintNS0_5StyleE
_ZN11SkStrokeRec4initERK7SkPaintNS0_5StyleEf
_ZN11SkStrokeRecC1ENS_9InitStyleE
_ZN11SkStrokeRecC1ERK7SkPaintNS0_5StyleEf
_ZN11SkStrokeRecC1ERK7SkPaintf
_ZN11SkStrokeRecC2ENS_9InitStyleE
_ZN11SkStrokeRecC2ERK7SkPaintNS0_5StyleEf
_ZN11SkStrokeRecC2ERK7SkPaintf
_ZN11SkTDStorage13removeShuffleEi
_ZN11SkTDStorage13shrink_to_fitEv
_ZN11SkTDStorage18calculateSizeOrDieEi
_ZN11SkTDStorage4swapERS_
_ZN11SkTDStorage5eraseEii
_ZN11SkTDStorage5resetEv
_ZN11SkTDStorage6appendEPKvi
_ZN11SkTDStorage6appendEi
_ZN11SkTDStorage6appendEv
_ZN11SkTDStorage6insertEi
_ZN11SkTDStorage6insertEiiPKv
_ZN11SkTDStorage6resizeEi
_ZN11SkTDStorage7copySrcEiPKvi
_ZN11SkTDStorage7prependEv
_ZN11SkTDStorage7reserveEi
_ZN11SkTDStorage8moveTailEiii
_ZN11SkTDStorageC1EOS_
_ZN11SkTDStorageC1EPKvii
_ZN11SkTDStorageC1ERKS_
_ZN11SkTDStorageC1Ei
_ZN11SkTDStorageC2EOS_
_ZN11SkTDStorageC2EPKvii
_ZN11SkTDStorageC2ERKS_
_ZN11SkTDStorageC2Ei
_ZN11SkTDStorageD1Ev
_ZN11SkTDStorageD2Ev
_ZN11SkTDStorageaSEOS_
_ZN11SkTDStorageaSERKS_
_ZN11SkTextUtils4DrawEP8SkCanvasPKvm14SkTextEncodingffRK6SkFontRK7SkPaintNS_5AlignE
_ZN11SkTextUtils7GetPathEPKvm14SkTextEncodingffRK6SkFontP6SkPath
_ZN11skpathutils17FillPathWithPaintERK6SkPathRK7SkPaintP13SkPathBuilder
_ZN11skpathutils17FillPathWithPaintERK6SkPathRK7SkPaintP13SkPathBuilderPK6SkRectRK8SkMatrix
_ZN11skpathutils17FillPathWithPaintERK6SkPathRK7SkPaintPS0_
_ZN11skpathutils17FillPathWithPaintERK6SkPathRK7SkPaintPS0_PK6SkRectRK8SkMatrix
_ZN11skpathutils17FillPathWithPaintERK6SkPathRK7SkPaintPS0_PK6SkRectf
_ZN11skpathutils17FillPathWithPaintERK6SkPathRK7SkPaintPb
_ZN12SkBmpDecoder5IsBmpEPKvm
_ZN12SkBmpDecoder6DecodeE5sk_spIK6SkDataEPN7SkCodec6ResultEPv
_ZN12SkBmpDecoder6DecodeESt10unique_ptrI8SkStreamSt14default_deleteIS1_EEPN7SkCodec6ResultEPv
_ZN12SkColorSpace11DeserializeEPKvm
_ZN12SkColorSpace14MakeSRGBLinearEv
_ZN12SkColorSpace4MakeERK16skcms_ICCProfile
_ZN12SkColorSpace6EqualsEPKS_S1_
_ZN12SkColorSpace7MakeRGBERK22skcms_TransferFunctionRK15skcms_Matrix3x3
_ZN12SkColorSpace8MakeCICPEN16SkNamedPrimaries6CicpIdEN17SkNamedTransferFn6CicpIdE
_ZN12SkColorSpace8MakeSRGBEv
_ZN12SkColorSpaceC1ERK22skcms_TransferFunctionRK15skcms_Matrix3x3
_ZN12SkColorSpaceC2ERK22skcms_TransferFunctionRK15skcms_Matrix3x3
_ZN12SkColorTable11DeserializeER12SkReadBuffer
_ZN12SkColorTable4MakeEPKhS1_S1_S1_
_ZN12SkFILEStream4moveEl
_ZN12SkFILEStream4readEPvm
_ZN12SkFILEStream4seekEm
_ZN12SkFILEStream5closeEv
_ZN12SkFILEStream6rewindEv
_ZN12SkFILEStreamC1EP8_IO_FILE
_ZN12SkFILEStreamC1EP8_IO_FILEm
_ZN12SkFILEStreamC1EP8_IO_FILEmm
_ZN12SkFILEStreamC1EPKc
_ZN12SkFILEStreamC1ESt10shared_ptrI8_IO_FILEEmm
_ZN12SkFILEStreamC1ESt10shared_ptrI8_IO_FILEEmmm
_ZN12SkFILEStreamC2EP8_IO_FILE
_ZN12SkFILEStreamC2EP8_IO_FILEm
_ZN12SkFILEStreamC2EP8_IO_FILEmm
_ZN12SkFILEStreamC2EPKc
_ZN12SkFILEStreamC2ESt10shared_ptrI8_IO_FILEEmm
_ZN12SkFILEStreamC2ESt10shared_ptrI8_IO_FILEEmmm
_ZN12SkFILEStreamD0Ev
_ZN12SkFILEStreamD1Ev
_ZN12SkFILEStreamD2Ev
_ZN12SkGifDecoder5IsGifEPKvm
_ZN12SkGifDecoder6DecodeE5sk_spIK6SkDataEPN7SkCodec6ResultEPv
_ZN12SkGifDecoder6DecodeESt10unique_ptrI8SkStreamSt14default_deleteIS1_EEPN7SkCodec6ResultEPv
_ZN12SkIcoDecoder5IsIcoEPKvm
_ZN12SkIcoDecoder6DecodeE5sk_spIK6SkDataEPN7SkCodec6ResultEPv
_ZN12SkIcoDecoder6DecodeESt10unique_ptrI8SkStreamSt14default_deleteIS1_EEPN7SkCodec6ResultEPv
_ZN12SkMaskFilter11DeserializeEPKvmPK15SkDeserialProcs
_ZN12SkMaskFilter20RegisterFlattenablesEv
_ZN12SkMaskFilter8MakeBlurE11SkBlurStylefb
_ZN12SkNWayCanvas10onClipPathERK6SkPath8SkClipOpN8SkCanvas13ClipEdgeStyleE
_ZN12SkNWayCanvas10onClipRectERK6SkRect8SkClipOpN8SkCanvas13ClipEdgeStyleE
_ZN12SkNWayCanvas10onDrawOvalERK6SkRectRK7SkPaint
_ZN12SkNWayCanvas10onDrawPathERK6SkPathRK7SkPaint
_ZN12SkNWayCanvas10onDrawRectERK6SkRectRK7SkPaint
_ZN12SkNWayCanvas10onDrawSlugEPKN6sktext3gpu4SlugERK7SkPaint
_ZN12SkNWayCanvas11didConcat44ERK5SkM44
_ZN12SkNWayCanvas11onClipRRectERK7SkRRect8SkClipOpN8SkCanvas13ClipEdgeStyleE
_ZN12SkNWayCanvas11onDrawPaintERK7SkPaint
_ZN12SkNWayCanvas11onDrawPatchEPK7SkPointPKjS2_11SkBlendModeRK7SkPaint
_ZN12SkNWayCanvas11onDrawRRectERK7SkRRectRK7SkPaint
_ZN12SkNWayCanvas11onResetClipEv
_ZN12SkNWayCanvas11willRestoreEv
_ZN12SkNWayCanvas12didTranslateEff
_ZN12SkNWayCanvas12onClipRegionERK8SkRegion8SkClipOp
_ZN12SkNWayCanvas12onClipShaderE5sk_spI8SkShaderE8SkClipOp
_ZN12SkNWayCanvas12onDrawAtlas2EPK7SkImagePK9SkRSXformPK6SkRectPKji11SkBlendModeRK17SkSamplingOptionsS8_PK7SkPaint
_ZN12SkNWayCanvas12onDrawBehindERK7SkPaint
_ZN12SkNWayCanvas12onDrawDRRectERK7SkRRectS2_RK7SkPaint
_ZN12SkNWayCanvas12onDrawImage2EPK7SkImageffRK17SkSamplingOptionsPK7SkPaint
_ZN12SkNWayCanvas12onDrawPointsEN8SkCanvas9PointModeEmPK7SkPointRK7SkPaint
_ZN12SkNWayCanvas12onDrawRegionERK8SkRegionRK7SkPaint
_ZN12SkNWayCanvas12removeCanvasEP8SkCanvas
_ZN12SkNWayCanvas13onDrawPictureEPK9SkPicturePK8SkMatrixPK7SkPaint
_ZN12SkNWayCanvas14onDoSaveBehindEPK6SkRect
_ZN12SkNWayCanvas14onDrawDrawableEP10SkDrawablePK8SkMatrix
_ZN12SkNWayCanvas14onDrawTextBlobEPK10SkTextBlobffRK7SkPaint
_ZN12SkNWayCanvas15onDrawShadowRecERK6SkPathRK15SkDrawShadowRec
_ZN12SkNWayCanvas16onDrawAnnotationERK6SkRectPKcP6SkData
_ZN12SkNWayCanvas16onDrawEdgeAAQuadERK6SkRectPK7SkPointN8SkCanvas11QuadAAFlagsERK8SkRGBA4fIL11SkAlphaType3EE11SkBlendMode
_ZN12SkNWayCanvas16onDrawImageRect2EPK7SkImageRK6SkRectS5_RK17SkSamplingOptionsPK7SkPaintN8SkCanvas17SrcRectConstraintE
_ZN12SkNWayCanvas18onDrawGlyphRunListERKN6sktext12GlyphRunListERK7SkPaint
_ZN12SkNWayCanvas19onDrawImageLattice2EPK7SkImageRKN8SkCanvas7LatticeERK6SkRect12SkFilterModePK7SkPaint
_ZN12SkNWayCanvas20getSaveLayerStrategyERKN8SkCanvas12SaveLayerRecE
_ZN12SkNWayCanvas20onDrawVerticesObjectEPK10SkVertices11SkBlendModeRK7SkPaint
_ZN12SkNWayCanvas21onDrawEdgeAAImageSet2EPKN8SkCanvas13ImageSetEntryEiPK7SkPointPK8SkMatrixRK17SkSamplingOptionsPK7SkPaintNS0_17SrcRectConstraintE
_ZN12SkNWayCanvas8didScaleEff
_ZN12SkNWayCanvas8willSaveEv
_ZN12SkNWayCanvas9addCanvasEP8SkCanvas
_ZN12SkNWayCanvas9didSetM44ERK5SkM44
_ZN12SkNWayCanvas9onDrawArcERK6SkRectffbRK7SkPaint
_ZN12SkNWayCanvas9removeAllEv
_ZN12SkNWayCanvasC1Eii
_ZN12SkNWayCanvasC2Eii
_ZN12SkNWayCanvasD0Ev
_ZN12SkNWayCanvasD1Ev
_ZN12SkNWayCanvasD2Ev
_ZN12SkPathEffect11DeserializeEPKvmPK15SkDeserialProcs
_ZN12SkPathEffect11MakeComposeE5sk_spIS_ES1_
_ZN12SkPathEffect7MakeSumE5sk_spIS_ES1_
_ZN12SkPngDecoder5IsPngEPKvm
_ZN12SkPngDecoder6DecodeE5sk_spIK6SkDataEPN7SkCodec6ResultEPv
_ZN12SkPngDecoder6DecodeESt10unique_ptrI8SkStreamSt14default_deleteIS1_EEPN7SkCodec6ResultEPv
_ZN12SkPngEncoder4MakeEP9SkWStreamRK8SkPixmapRKNS_7OptionsE
_ZN12SkPngEncoder6EncodeEP15GrDirectContextPK7SkImageRKNS_7OptionsE
_ZN12SkPngEncoder6EncodeEP9SkWStreamRK8SkPixmapRKNS_7OptionsE
_ZN12SkPngEncoder6EncodeERK8SkPixmapRKNS_7OptionsE
_ZN12SkRawDecoder6DecodeE5sk_spIK6SkDataEPN7SkCodec6ResultEPv
_ZN12SkRawDecoder6DecodeESt10unique_ptrI8SkStreamSt14default_deleteIS1_EEPN7SkCodec6ResultEPv
_ZN13SkColorFilter11DeserializeEPKvmPK15SkDeserialProcs
_ZN13SkColorMatrix11setIdentityEv
_ZN13SkColorMatrix13postTranslateEffff
_ZN13SkColorMatrix13setSaturationEf
_ZN13SkColorMatrix8RGBtoYUVE15SkYUVColorSpace
_ZN13SkColorMatrix8YUVtoRGBE15SkYUVColorSpace
_ZN13SkColorMatrix8setScaleEffff
_ZN13SkColorMatrix9setConcatERKS_S1_
_ZN13SkEventTracer11GetInstanceEv
_ZN13SkEventTracer11SetInstanceEPS_b
_ZN13SkFILEWStream5flushEv
_ZN13SkFILEWStream5fsyncEv
_ZN13SkFILEWStream5writeEPKvm
_ZN13SkFILEWStreamC1EPKc
_ZN13SkFILEWStreamC2EPKc
_ZN13SkFILEWStreamD0Ev
_ZN13SkFILEWStreamD1Ev
_ZN13SkFILEWStreamD2Ev
_ZN13SkFlattenable11DeserializeENS_4TypeEPKvmPK15SkDeserialProcs
_ZN13SkFlattenable13FactoryToNameEPF5sk_spIS_ER12SkReadBufferE
_ZN13SkFlattenable13NameToFactoryEPKc
_ZN13SkFlattenable18PrivateInitializer11InitEffectsEv
_ZN13SkFlattenable18PrivateInitializer16InitImageFiltersEv
_ZN13SkFlattenable28RegisterFlattenablesIfNeededEv
_ZN13SkFlattenable8FinalizeEv
_ZN13SkFlattenable8RegisterEPKcPF5sk_spIS_ER12SkReadBufferE
_ZN13SkJpegDecoder6DecodeE5sk_spIK6SkDataEPN7SkCodec6ResultEPv
_ZN13SkJpegDecoder6DecodeESt10unique_ptrI8SkStreamSt14default_deleteIS1_EEPN7SkCodec6ResultEPv
_ZN13SkJpegDecoder6IsJpegEPKvm
_ZN13SkJpegEncoder4MakeEP9SkWStreamRK13SkYUVAPixmapsPK12SkColorSpaceRKNS_7OptionsE
_ZN13SkJpegEncoder4MakeEP9SkWStreamRK8SkPixmapRKNS_7OptionsE
_ZN13SkJpegEncoder6EncodeEP15GrDirectContextPK7SkImageRKNS_7OptionsE
_ZN13SkJpegEncoder6EncodeEP9SkWStreamRK13SkYUVAPixmapsPK12SkColorSpaceRKNS_7OptionsE
_ZN13SkJpegEncoder6EncodeEP9SkWStreamRK8SkPixmapRKNS_7OptionsE
_ZN13SkJpegEncoder6EncodeERK8SkPixmapRKNS_7OptionsE
_ZN13SkLatticeIter20mapDstScaleTranslateERK8SkMatrix
_ZN13SkLatticeIter4nextEP7SkIRectP6SkRectPbPj
_ZN13SkLatticeIter5ValidEiiRK7SkIRect
_ZN13SkLatticeIter5ValidEiiRKN8SkCanvas7LatticeE
_ZN13SkLatticeIterC1ERKN8SkCanvas7LatticeERK6SkRect
_ZN13SkLatticeIterC1EiiRK7SkIRectRK6SkRect
_ZN13SkLatticeIterC2ERKN8SkCanvas7LatticeERK6SkRect
_ZN13SkLatticeIterC2EiiRK7SkIRectRK6SkRect
_ZN13SkPathBuilder10addPolygonE6SkSpanIK7SkPointEb
_ZN13SkPathBuilder10detachDataEv
_ZN13SkPathBuilder10incReserveEiii
_ZN13SkPathBuilder10polylineToE6SkSpanIK7SkPointE
_ZN13SkPathBuilder18growForVerbsInPathERK6SkPath
_ZN13SkPathBuilder20privateReversePathToERK6SkPath
_ZN13SkPathBuilder21privateReverseAddPathERK6SkPath
_ZN13SkPathBuilder5arcToE7SkPointS0_f
_ZN13SkPathBuilder5arcToE7SkPointfNS_7ArcSizeE15SkPathDirectionS0_
_ZN13SkPathBuilder5arcToERK6SkRectffb
_ZN13SkPathBuilder5closeEv
_ZN13SkPathBuilder5resetEv
_ZN13SkPathBuilder6addArcERK6SkRectff
_ZN13SkPathBuilder6addRawERK9SkPathRaw
_ZN13SkPathBuilder6detachEPK8SkMatrix
_ZN13SkPathBuilder6lineToE7SkPoint
_ZN13SkPathBuilder6moveToE7SkPoint
_ZN13SkPathBuilder6offsetEff
_ZN13SkPathBuilder6quadToE7SkPointS0_
_ZN13SkPathBuilder6rArcToE7SkPointfNS_7ArcSizeE15SkPathDirectionS0_
_ZN13SkPathBuilder7addOvalERK6SkRect15SkPathDirectionj
_ZN13SkPathBuilder7addPathERK6SkPathRK8SkMatrixNS0_11AddPathModeE
_ZN13SkPathBuilder7addPathERK6SkPathffNS0_11AddPathModeE
_ZN13SkPathBuilder7addRectERK6SkRect15SkPathDirectionj
_ZN13SkPathBuilder7conicToE7SkPointS0_f
_ZN13SkPathBuilder7cubicToE7SkPointS0_S0_
_ZN13SkPathBuilder7rLineToE7SkPoint
_ZN13SkPathBuilder7rMoveToE7SkPoint
_ZN13SkPathBuilder7rQuadToE7SkPointS0_
_ZN13SkPathBuilder8addRRectERK7SkRRect15SkPathDirectionj
_ZN13SkPathBuilder8rConicToE7SkPointS0_f
_ZN13SkPathBuilder8rCubicToE7SkPointS0_S0_
_ZN13SkPathBuilder8setPointEm7SkPoint
_ZN13SkPathBuilder9addCircleEfff15SkPathDirection
_ZN13SkPathBuilder9setLastPtEff
_ZN13SkPathBuilder9transformERK8SkMatrix
_ZN13SkPathBuilderC1E14SkPathFillType
_ZN13SkPathBuilderC1ERK6SkPath
_ZN13SkPathBuilderC1Ev
_ZN13SkPathBuilderC2E14SkPathFillType
_ZN13SkPathBuilderC2ERK6SkPath
_ZN13SkPathBuilderC2Ev
_ZN13SkPathBuilderD1Ev
_ZN13SkPathBuilderD2Ev
_ZN13SkPathBuilderaSERK6SkPath
_ZN13SkPathMeasure10getSegmentEffP13SkPathBuilderb
_ZN13SkPathMeasure10getSegmentEffP6SkPathb
_ZN13SkPathMeasure11nextContourEv
_ZN13SkPathMeasure7setPathEPK6SkPathb
_ZN13SkPathMeasure8isClosedEv
_ZN13SkPathMeasure9getLengthEv
_ZN13SkPathMeasure9getMatrixEfP8SkMatrixNS_11MatrixFlagsE
_ZN13SkPathMeasure9getPosTanEfP7SkPointS1_
_ZN13SkPathMeasureC1ERK6SkPathbf
_ZN13SkPathMeasureC1Ev
_ZN13SkPathMeasureC2ERK6SkPathbf
_ZN13SkPathMeasureC2Ev
_ZN13SkPathMeasureD1Ev
_ZN13SkPathMeasureD2Ev
_ZN13SkPixmapUtils15SwapWidthHeightERK11SkImageInfo
_ZN13SkPixmapUtils6OrientERK8SkPixmapS2_15SkEncodedOrigin
_ZN13SkShadowUtils10DrawShadowEP8SkCanvasRK6SkPathRK8SkPoint3S7_fjjj
_ZN13SkShadowUtils14GetLocalBoundsERK8SkMatrixRK6SkPathRK8SkPoint3S8_fjP6SkRect
_ZN13SkShadowUtils18ComputeTonalColorsEjjPjS0_
_ZN13SkWbmpDecoder6DecodeE5sk_spIK6SkDataEPN7SkCodec6ResultEPv
_ZN13SkWbmpDecoder6DecodeESt10unique_ptrI8SkStreamSt14default_deleteIS1_EEPN7SkCodec6ResultEPv
_ZN13SkWbmpDecoder6IsWbmpEPKvm
_ZN13SkYUVAPixmaps18FromExternalMemoryERK16SkYUVAPixmapInfoPv
_ZN13SkYUVAPixmaps19FromExternalPixmapsERK10SkYUVAInfoPK8SkPixmap
_ZN13SkYUVAPixmaps24RecommendedRGBAColorTypeEN16SkYUVAPixmapInfo8DataTypeE
_ZN13SkYUVAPixmaps8AllocateERK16SkYUVAPixmapInfo
_ZN13SkYUVAPixmaps8FromDataERK16SkYUVAPixmapInfo5sk_spI6SkDataE
_ZN13SkYUVAPixmaps8MakeCopyERKS_
_ZN13SkYUVAPixmapsC1ERK10SkYUVAInfoN16SkYUVAPixmapInfo8DataTypeEPK8SkPixmap
_ZN13SkYUVAPixmapsC1ERK16SkYUVAPixmapInfo5sk_spI6SkDataE
_ZN13SkYUVAPixmapsC2ERK10SkYUVAInfoN16SkYUVAPixmapInfo8DataTypeEPK8SkPixmap
_ZN13SkYUVAPixmapsC2ERK16SkYUVAPixmapInfo5sk_spI6SkDataE
_ZN14GrImageContext14abandonContextEv
_ZN14GrImageContext9abandonedEv
_ZN14SkAndroidCodec12MakeFromDataE5sk_spIK6SkDataEP16SkPngChunkReader
_ZN14SkAndroidCodec13MakeFromCodecESt10unique_ptrI7SkCodecSt14default_deleteIS1_EE
_ZN14SkAndroidCodec14MakeFromStreamESt10unique_ptrI8SkStreamSt14default_deleteIS1_EEP16SkPngChunkReader
_ZN14SkAndroidCodec16getAndroidPixelsERK11SkImageInfoPvm
_ZN14SkAndroidCodec16getAndroidPixelsERK11SkImageInfoPvmPKNS_14AndroidOptionsE
_ZN14SkAndroidCodec17getAndroidGainmapEP13SkGainmapInfoPSt10unique_ptrI8SkStreamSt14default_deleteIS3_EE
_ZN14SkAndroidCodec22computeOutputAlphaTypeEb
_ZN14SkAndroidCodec22computeOutputColorTypeE11SkColorType
_ZN14SkAndroidCodec22getGainmapAndroidCodecEP13SkGainmapInfoPSt10unique_ptrIS_St14default_deleteIS_EE
_ZN14SkAndroidCodec23computeOutputColorSpaceE11SkColorType5sk_spI12SkColorSpaceE
_ZN14SkAndroidCodecC2EP7SkCodec
_ZN14SkAndroidCodecD0Ev
_ZN14SkAndroidCodecD1Ev
_ZN14SkAndroidCodecD2Ev
_ZN14SkCapabilities10initSkCapsEPKN4SkSL10ShaderCapsE
_ZN14SkCapabilities13RasterBackendEv
_ZN14SkColorFilters10HSLAMatrixEPKf
_ZN14SkColorFilters10HSLAMatrixERK13SkColorMatrix
_ZN14SkColorFilters17LinearToSRGBGammaEv
_ZN14SkColorFilters17SRGBToLinearGammaEv
_ZN14SkColorFilters4LerpEf5sk_spI13SkColorFilterES2_
_ZN14SkColorFilters5BlendERK8SkRGBA4fIL11SkAlphaType3EE5sk_spI12SkColorSpaceE11SkBlendMode
_ZN14SkColorFilters5BlendEj11SkBlendMode
_ZN14SkColorFilters5TableE5sk_spI12SkColorTableE
_ZN14SkColorFilters5TableEPKh
_ZN14SkColorFilters6MatrixEPKfNS_5ClampE
_ZN14SkColorFilters6MatrixERK13SkColorMatrixNS_5ClampE
_ZN14SkColorFilters8LightingEjj
_ZN14SkColorFilters9TableARGBEPKhS1_S1_S1_
_ZN14SkFontStyleSet11CreateEmptyEv
_ZN14SkFontStyleSet14matchStyleCSS3ERK11SkFontStyle
_ZN14SkImageFilters10ArithmeticEffffb5sk_spI13SkImageFilterES2_RKNS_8CropRectE
_ZN14SkImageFilters10DropShadowEffff8SkRGBA4fIL11SkAlphaType3EE5sk_spI12SkColorSpaceES3_I13SkImageFilterERKNS_8CropRectE
_ZN14SkImageFilters11ColorFilterE5sk_spI13SkColorFilterES0_I13SkImageFilterERKNS_8CropRectE
_ZN14SkImageFilters13RuntimeShaderERK22SkRuntimeEffectBuilderfPSt17basic_string_viewIcSt11char_traitsIcEEPK5sk_spI13SkImageFilterEi
_ZN14SkImageFilters13RuntimeShaderERK22SkRuntimeEffectBuilderfSt17basic_string_viewIcSt11char_traitsIcEE5sk_spI13SkImageFilterE
_ZN14SkImageFilters14DropShadowOnlyEffff8SkRGBA4fIL11SkAlphaType3EE5sk_spI12SkColorSpaceES3_I13SkImageFilterERKNS_8CropRectE
_ZN14SkImageFilters14SpotLitDiffuseERK8SkPoint3S2_ffjff5sk_spI13SkImageFilterERKNS_8CropRectE
_ZN14SkImageFilters15DisplacementMapE14SkColorChannelS0_f5sk_spI13SkImageFilterES3_RKNS_8CropRectE
_ZN14SkImageFilters15MatrixTransformERK8SkMatrixRK17SkSamplingOptions5sk_spI13SkImageFilterE
_ZN14SkImageFilters15PointLitDiffuseERK8SkPoint3jff5sk_spI13SkImageFilterERKNS_8CropRectE
_ZN14SkImageFilters15SpotLitSpecularERK8SkPoint3S2_ffjfff5sk_spI13SkImageFilterERKNS_8CropRectE
_ZN14SkImageFilters16PointLitSpecularERK8SkPoint3jfff5sk_spI13SkImageFilterERKNS_8CropRectE
_ZN14SkImageFilters17DistantLitDiffuseERK8SkPoint3jff5sk_spI13SkImageFilterERKNS_8CropRectE
_ZN14SkImageFilters17MatrixConvolutionERK7SkISizePKfffRK8SkIPoint10SkTileModeb5sk_spI13SkImageFilterERKNS_8CropRectE
_ZN14SkImageFilters18DistantLitSpecularERK8SkPoint3jfff5sk_spI13SkImageFilterERKNS_8CropRectE
_ZN14SkImageFilters4BlurEff10SkTileMode5sk_spI13SkImageFilterERKNS_8CropRectE
_ZN14SkImageFilters4CropERK6SkRect10SkTileMode5sk_spI13SkImageFilterE
_ZN14SkImageFilters4TileERK6SkRectS2_5sk_spI13SkImageFilterE
_ZN14SkImageFilters5BlendE11SkBlendMode5sk_spI13SkImageFilterES3_RKNS_8CropRectE
_ZN14SkImageFilters5BlendE5sk_spI9SkBlenderES0_I13SkImageFilterES4_RKNS_8CropRectE
_ZN14SkImageFilters5EmptyEv
_ZN14SkImageFilters5ErodeEff5sk_spI13SkImageFilterERKNS_8CropRectE
_ZN14SkImageFilters5ImageE5sk_spI7SkImageERK6SkRectS5_RK17SkSamplingOptions
_ZN14SkImageFilters5MergeEP5sk_spI13SkImageFilterEiRKNS_8CropRectE
_ZN14SkImageFilters6DilateEff5sk_spI13SkImageFilterERKNS_8CropRectE
_ZN14SkImageFilters6OffsetEff5sk_spI13SkImageFilterERKNS_8CropRectE
_ZN14SkImageFilters6ShaderE5sk_spI8SkShaderENS_6DitherERKNS_8CropRectE
_ZN14SkImageFilters7ComposeE5sk_spI13SkImageFilterES2_
_ZN14SkImageFilters7PictureE5sk_spI9SkPictureERK6SkRect
_ZN14SkImageFilters9MagnifierERK6SkRectffRK17SkSamplingOptions5sk_spI13SkImageFilterERKNS_8CropRectE
_ZN14SkMemoryStream10MakeDirectEPKvm
_ZN14SkMemoryStream13getMemoryBaseEv
_ZN14SkMemoryStream14setMemoryOwnedEPKvm
_ZN14SkMemoryStream4MakeE5sk_spIK6SkDataE
_ZN14SkMemoryStream4moveEl
_ZN14SkMemoryStream4readEPvm
_ZN14SkMemoryStream4seekEm
_ZN14SkMemoryStream6rewindEv
_ZN14SkMemoryStream7setDataE5sk_spIK6SkDataE
_ZN14SkMemoryStream8MakeCopyEPKvm
_ZN14SkMemoryStream8getAtPosEv
_ZN14SkMemoryStream9setMemoryEPKvmb
_ZN14SkMemoryStreamC1E5sk_spIK6SkDataE
_ZN14SkMemoryStreamC1EPKvmb
_ZN14SkMemoryStreamC1Em
_ZN14SkMemoryStreamC1Ev
_ZN14SkMemoryStreamC2E5sk_spIK6SkDataE
_ZN14SkMemoryStreamC2EPKvmb
_ZN14SkMemoryStreamC2Em
_ZN14SkMemoryStreamC2Ev
_ZN14SkNoDrawCanvas14onDoSaveBehindEPK6SkRect
_ZN14SkNoDrawCanvas20getSaveLayerStrategyERKN8SkCanvas12SaveLayerRecE
_ZN14SkNoDrawCanvasC1ERK7SkIRect
_ZN14SkNoDrawCanvasC1Eii
_ZN14SkNoDrawCanvasC2ERK7SkIRect
_ZN14SkNoDrawCanvasC2Eii
_ZN14SkStrikeClient14readStrikeDataEPVKvm
_ZN14SkStrikeClientC1E5sk_spINS_24DiscardableHandleManagerEEbP13SkStrikeCache
_ZN14SkStrikeClientC2E5sk_spINS_24DiscardableHandleManagerEEbP13SkStrikeCache
_ZN14SkStrikeClientD1Ev
_ZN14SkStrikeClientD2Ev
_ZN14SkStrikeServer15writeStrikeDataEPSt6vectorIhSaIhEE
_ZN14SkStrikeServer18makeAnalysisCanvasEiiRK14SkSurfaceProps5sk_spI12SkColorSpaceEbb
_ZN14SkStrikeServerC1EPNS_24DiscardableHandleManagerE
_ZN14SkStrikeServerC2EPNS_24DiscardableHandleManagerE
_ZN14SkStrikeServerD1Ev
_ZN14SkStrikeServerD2Ev
_ZN14SkSurfacePropsC1Ej15SkPixelGeometry
_ZN14SkSurfacePropsC1Ej15SkPixelGeometryff
_ZN14SkSurfacePropsC1Ev
_ZN14SkSurfacePropsC2Ej15SkPixelGeometry
_ZN14SkSurfacePropsC2Ej15SkPixelGeometryff
_ZN14SkSurfacePropsC2Ev
_ZN15GrBackendFormat8MakeMockE11GrColorType24SkTextureCompressionTypeb
_ZN15GrBackendFormatC1E11GrColorType24SkTextureCompressionTypeb
_ZN15GrBackendFormatC1ERKS_
_ZN15GrBackendFormatC1Ev
_ZN15GrBackendFormatC2E11GrColorType24SkTextureCompressionTypeb
_ZN15GrBackendFormatC2ERKS_
_ZN15GrBackendFormatC2Ev
_ZN15GrBackendFormatD1Ev
_ZN15GrBackendFormatD2Ev
_ZN15GrBackendFormataSERKS_
_ZN15GrDirectContext12isDeviceLostEv
_ZN15GrDirectContext12resetContextEj
_ZN15GrDirectContext14abandonContextEv
_ZN15GrDirectContext14flushAndSubmitEP9SkSurface9GrSyncCpu
_ZN15GrDirectContext14flushAndSubmitERK5sk_spIK7SkImageE
_ZN15GrDirectContext15DirectContextID4NextEv
_ZN15GrDirectContext15threadSafeProxyEv
_ZN15GrDirectContext16freeGpuResourcesEv
_ZN15GrDirectContext16precompileShaderERK6SkDataS2_
_ZN15GrDirectContext20createBackendTextureEPK8SkPixmapi15GrSurfaceOriginN5skgpu10RenderableENS4_9ProtectedEPFvPvES7_St17basic_string_viewIcSt11char_traitsIcEE
_ZN15GrDirectContext20createBackendTextureEPK8SkPixmapiN5skgpu10RenderableENS3_9ProtectedEPFvPvES6_St17basic_string_viewIcSt11char_traitsIcEE
_ZN15GrDirectContext20createBackendTextureERK8SkPixmap15GrSurfaceOriginN5skgpu10RenderableENS4_9ProtectedEPFvPvES7_St17basic_string_viewIcSt11char_traitsIcEE
_ZN15GrDirectContext20createBackendTextureERK8SkPixmapN5skgpu10RenderableENS3_9ProtectedEPFvPvES6_St17basic_string_viewIcSt11char_traitsIcEE
_ZN15GrDirectContext20createBackendTextureEii11SkColorTypeN5skgpu9MipmappedENS1_10RenderableENS1_9ProtectedESt17basic_string_viewIcSt11char_traitsIcEE
_ZN15GrDirectContext20createBackendTextureEii11SkColorTypeRK8SkRGBA4fIL11SkAlphaType3EEN5skgpu9MipmappedENS6_10RenderableENS6_9ProtectedEPFvPvESA_St17basic_string_viewIcSt11char_traitsIcEE
_ZN15GrDirectContext20createBackendTextureEiiRK15GrBackendFormatN5skgpu9MipmappedENS3_10RenderableENS3_9ProtectedESt17basic_string_viewIcSt11char_traitsIcEE
_ZN15GrDirectContext20createBackendTextureEiiRK15GrBackendFormatRK8SkRGBA4fIL11SkAlphaType3EEN5skgpu9MipmappedENS8_10RenderableENS8_9ProtectedEPFvPvESC_St17basic_string_viewIcSt11char_traitsIcEE
_ZN15GrDirectContext20deleteBackendTextureERK16GrBackendTexture
_ZN15GrDirectContext20updateBackendTextureERK16GrBackendTexture11SkColorTypeRK8SkRGBA4fIL11SkAlphaType3EEPFvPvES9_
_ZN15GrDirectContext20updateBackendTextureERK16GrBackendTexturePK8SkPixmapi15GrSurfaceOriginPFvPvES7_
_ZN15GrDirectContext20updateBackendTextureERK16GrBackendTexturePK8SkPixmapiPFvPvES6_
_ZN15GrDirectContext20updateBackendTextureERK16GrBackendTextureRK8SkRGBA4fIL11SkAlphaType3EEPFvPvES8_
_ZN15GrDirectContext21setResourceCacheLimitEm
_ZN15GrDirectContext22onGetSmallPathAtlasMgrEv
_ZN15GrDirectContext22performDeferredCleanupENSt6chrono8durationIlSt5ratioILl1ELl1000EEEE22GrPurgeResourceOptions
_ZN15GrDirectContext22purgeUnlockedResourcesE22GrPurgeResourceOptions
_ZN15GrDirectContext22purgeUnlockedResourcesEmb
_ZN15GrDirectContext22resetGLTextureBindingsEv
_ZN15GrDirectContext22setBackendTextureStateERK16GrBackendTextureRKN5skgpu19MutableTextureStateEPS4_PFvPvES8_
_ZN15GrDirectContext22setResourceCacheLimitsEim
_ZN15GrDirectContext24checkAsyncWorkCompletionEv
_ZN15GrDirectContext24storeVkPipelineCacheDataEm
_ZN15GrDirectContext24storeVkPipelineCacheDataEv
_ZN15GrDirectContext25syncAllOutstandingGpuWorkEb
_ZN15GrDirectContext27setBackendRenderTargetStateERK21GrBackendRenderTargetRKN5skgpu19MutableTextureStateEPS4_PFvPvES8_
_ZN15GrDirectContext30createCompressedBackendTextureEii24SkTextureCompressionTypePKvmN5skgpu9MipmappedENS3_9ProtectedEPFvPvES6_
_ZN15GrDirectContext30createCompressedBackendTextureEii24SkTextureCompressionTypeRK8SkRGBA4fIL11SkAlphaType3EEN5skgpu9MipmappedENS6_9ProtectedEPFvPvES9_
_ZN15GrDirectContext30createCompressedBackendTextureEiiRK15GrBackendFormatPKvmN5skgpu9MipmappedENS5_9ProtectedEPFvPvES8_
_ZN15GrDirectContext30createCompressedBackendTextureEiiRK15GrBackendFormatRK8SkRGBA4fIL11SkAlphaType3EEN5skgpu9MipmappedENS8_9ProtectedEPFvPvESB_
_ZN15GrDirectContext30updateCompressedBackendTextureERK16GrBackendTexturePKvmPFvPvES5_
_ZN15GrDirectContext30updateCompressedBackendTextureERK16GrBackendTextureRK8SkRGBA4fIL11SkAlphaType3EEPFvPvES8_
_ZN15GrDirectContext33releaseResourcesAndAbandonContextEv
_ZN15GrDirectContext4initEv
_ZN15GrDirectContext4waitEiPK18GrBackendSemaphoreb
_ZN15GrDirectContext5flushEP9SkSurface
_ZN15GrDirectContext5flushEP9SkSurfaceN10SkSurfaces20BackendSurfaceAccessERK11GrFlushInfo
_ZN15GrDirectContext5flushEP9SkSurfaceRK11GrFlushInfoPKN5skgpu19MutableTextureStateE
_ZN15GrDirectContext5flushERK11GrFlushInfo
_ZN15GrDirectContext5flushERK5sk_spIK7SkImageE
_ZN15GrDirectContext5flushERK5sk_spIK7SkImageERK11GrFlushInfo
_ZN15GrDirectContext5oomedEv
_ZN15GrDirectContext6submitERK12GrSubmitInfo
_ZN15GrDirectContext8MakeMockEPK13GrMockOptions
_ZN15GrDirectContext8MakeMockEPK13GrMockOptionsRK16GrContextOptions
_ZN15GrDirectContext9abandonedEv
_ZN15GrDirectContextC1E12GrBackendApiRK16GrContextOptions5sk_spI24GrContextThreadSafeProxyE
_ZN15GrDirectContextC2E12GrBackendApiRK16GrContextOptions5sk_spI24GrContextThreadSafeProxyE
_ZN15GrDirectContextD0Ev
_ZN15GrDirectContextD1Ev
_ZN15GrDirectContextD2Ev
_ZN15SkAnimatedImage11onGetBoundsEv
_ZN15SkAnimatedImage13setFilterModeE12SkFilterMode
_ZN15SkAnimatedImage15decodeNextFrameEv
_ZN15SkAnimatedImage15getCurrentFrameEv
_ZN15SkAnimatedImage16computeNextFrameEiPb
_ZN15SkAnimatedImage18setRepetitionCountEi
_ZN15SkAnimatedImage21getCurrentFrameSimpleEv
_ZN15SkAnimatedImage4MakeESt10unique_ptrI14SkAndroidCodecSt14default_deleteIS1_EE
_ZN15SkAnimatedImage4MakeESt10unique_ptrI14SkAndroidCodecSt14default_deleteIS1_EERK11SkImageInfo7SkIRect5sk_spI9SkPictureE
_ZN15SkAnimatedImage5Frame4initERK11SkImageInfoNS0_6OnInitE
_ZN15SkAnimatedImage5FrameC1Ev
_ZN15SkAnimatedImage5FrameC2Ev
_ZN15SkAnimatedImage5resetEv
_ZN15SkAnimatedImage6finishEv
_ZN15SkAnimatedImage6onDrawEP8SkCanvas
_ZN15SkAnimatedImageC1ESt10unique_ptrI14SkAndroidCodecSt14default_deleteIS1_EERK11SkImageInfo7SkIRect5sk_spI9SkPictureE
_ZN15SkAnimatedImageC2ESt10unique_ptrI14SkAndroidCodecSt14default_deleteIS1_EERK11SkImageInfo7SkIRect5sk_spI9SkPictureE
_ZN15SkAnimatedImageD0Ev
_ZN15SkAnimatedImageD1Ev
_ZN15SkAnimatedImageD2Ev
_ZN15SkGainmapShader4MakeERK5sk_spIK7SkImageERK6SkRectRK17SkSamplingOptionsS5_S8_SB_RK13SkGainmapInfoS8_f
_ZN15SkGainmapShader4MakeERK5sk_spIK7SkImageERK6SkRectRK17SkSamplingOptionsS5_S8_SB_RK13SkGainmapInfoS8_fS0_I12SkColorSpaceE
_ZN15SkRuntimeEffect10MakeTracedE5sk_spI8SkShaderERK8SkIPoint
_ZN15SkRuntimeEffect12MakeInternalESt10unique_ptrIN4SkSL7ProgramESt14default_deleteIS2_EERKNS_7OptionsENS1_11ProgramKindE
_ZN15SkRuntimeEffect12MakeSettingsERKNS_7OptionsE
_ZN15SkRuntimeEffect13MakeForShaderE8SkStringRKNS_7OptionsE
_ZN15SkRuntimeEffect14MakeForBlenderE8SkStringRKNS_7OptionsE
_ZN15SkRuntimeEffect14MakeFromSourceE8SkStringRKNS_7OptionsEN4SkSL11ProgramKindE
_ZN15SkRuntimeEffect18MakeForColorFilterE8SkStringRKNS_7OptionsE
_ZN15SkRuntimeEffect20RegisterFlattenablesEv
_ZN15SkRuntimeEffect20makeUnoptimizedCloneEv
_ZN15SkRuntimeEffect8ChildPtrC1E5sk_spI13SkFlattenableE
_ZN15SkRuntimeEffect8ChildPtrC2E5sk_spI13SkFlattenableE
_ZN15SkRuntimeEffectC1ESt10unique_ptrIN4SkSL7ProgramESt14default_deleteIS2_EERKNS_7OptionsERKNS1_18FunctionDefinitionEOSt6vectorINS_7UniformESaISD_EEOSC_INS_5ChildESaISH_EEOSC_INS1_11SampleUsageESaISL_EEj
_ZN15SkRuntimeEffectC2ESt10unique_ptrIN4SkSL7ProgramESt14default_deleteIS2_EERKNS_7OptionsERKNS1_18FunctionDefinitionEOSt6vectorINS_7UniformESaISD_EEOSC_INS_5ChildESaISH_EEOSC_INS1_11SampleUsageESaISL_EEj
_ZN15SkRuntimeEffectD0Ev
_ZN15SkRuntimeEffectD1Ev
_ZN15SkRuntimeEffectD2Ev
_ZN15SkUnPreMultiply14PMColorToColorEj
_ZN15SkUnPreMultiply6gTableE
_ZN16GrBackendTexture13isSameTextureERKS_
_ZN16GrBackendTexture15setMutableStateERKN5skgpu19MutableTextureStateE
_ZN16GrBackendTexture18TestingOnly_EqualsERKS_S1_
_ZN16GrBackendTexture7cleanupEv
_ZN16GrBackendTextureC1ERKS_
_ZN16GrBackendTextureC1EiiN5skgpu9MipmappedERK17GrMockTextureInfoSt17basic_string_viewIcSt11char_traitsIcEE
_ZN16GrBackendTextureC1Ev
_ZN16GrBackendTextureC2ERKS_
_ZN16GrBackendTextureC2EiiN5skgpu9MipmappedERK17GrMockTextureInfoSt17basic_string_viewIcSt11char_traitsIcEE
_ZN16GrBackendTextureC2Ev
_ZN16GrBackendTextureD1Ev
_ZN16GrBackendTextureD2Ev
_ZN16GrBackendTextureaSERKS_
_ZN16SkContourMeasureC1EO9SkTDArrayINS_7SegmentEEOS0_I7SkPointEfb
_ZN16SkContourMeasureC2EO9SkTDArrayINS_7SegmentEEOS0_I7SkPointEfb
_ZN16SkDashPathEffect4MakeE6SkSpanIKfEf
_ZN16SkGradientShader10MakeLinearEPK7SkPointPK8SkRGBA4fIL11SkAlphaType3EE5sk_spI12SkColorSpaceEPKfi10SkTileModeRKNS_13InterpolationEPK8SkMatrix
_ZN16SkGradientShader10MakeLinearEPK7SkPointPKjPKfi10SkTileModejPK8SkMatrix
_ZN16SkGradientShader10MakeRadialERK7SkPointfPK8SkRGBA4fIL11SkAlphaType3EE5sk_spI12SkColorSpaceEPKfi10SkTileModeRKNS_13InterpolationEPK8SkMatrix
_ZN16SkGradientShader10MakeRadialERK7SkPointfPKjPKfi10SkTileModejPK8SkMatrix
_ZN16SkGradientShader19MakeTwoPointConicalERK7SkPointfS2_fPK8SkRGBA4fIL11SkAlphaType3EE5sk_spI12SkColorSpaceEPKfi10SkTileModeRKNS_13InterpolationEPK8SkMatrix
_ZN16SkGradientShader19MakeTwoPointConicalERK7SkPointfS2_fPKjPKfi10SkTileModejPK8SkMatrix
_ZN16SkGradientShader9MakeSweepEffPK8SkRGBA4fIL11SkAlphaType3EE5sk_spI12SkColorSpaceEPKfi10SkTileModeffRKNS_13InterpolationEPK8SkMatrix
_ZN16SkGradientShader9MakeSweepEffPKjPKfi10SkTileModeffjPK8SkMatrix
_ZN16SkImageGenerator13getYUVAPlanesERK13SkYUVAPixmaps
_ZN16SkImageGenerator9getPixelsERK11SkImageInfoPvm
_ZN16SkImageGeneratorC1ERK11SkImageInfoj
_ZN16SkImageGeneratorC2ERK11SkImageInfoj
_ZN16SkMallocPixelRef12MakeAllocateERK11SkImageInfom
_ZN16SkMallocPixelRef12MakeWithDataERK11SkImageInfom5sk_spI6SkDataE
_ZN16SkOrderedFontMgr6appendE5sk_spI9SkFontMgrE
_ZN16SkOrderedFontMgrC1Ev
_ZN16SkOrderedFontMgrC2Ev
_ZN16SkOrderedFontMgrD0Ev
_ZN16SkOrderedFontMgrD1Ev
_ZN16SkOrderedFontMgrD2Ev
_ZN16SkOverdrawCanvas10onDrawOvalERK6SkRectRK7SkPaint
_ZN16SkOverdrawCanvas10onDrawPathERK6SkPathRK7SkPaint
_ZN16SkOverdrawCanvas10onDrawRectERK6SkRectRK7SkPaint
_ZN16SkOverdrawCanvas11onDrawPaintERK7SkPaint
_ZN16SkOverdrawCanvas11onDrawPatchEPK7SkPointPKjS2_11SkBlendModeRK7SkPaint
_ZN16SkOverdrawCanvas11onDrawRRectERK7SkRRectRK7SkPaint
_ZN16SkOverdrawCanvas12onDrawAtlas2EPK7SkImagePK9SkRSXformPK6SkRectPKji11SkBlendModeRK17SkSamplingOptionsS8_PK7SkPaint
_ZN16SkOverdrawCanvas12onDrawBehindERK7SkPaint
_ZN16SkOverdrawCanvas12onDrawDRRectERK7SkRRectS2_RK7SkPaint
_ZN16SkOverdrawCanvas12onDrawImage2EPK7SkImageffRK17SkSamplingOptionsPK7SkPaint
_ZN16SkOverdrawCanvas12onDrawPointsEN8SkCanvas9PointModeEmPK7SkPointRK7SkPaint
_ZN16SkOverdrawCanvas12onDrawRegionERK8SkRegionRK7SkPaint
_ZN16SkOverdrawCanvas13onDrawPictureEPK9SkPicturePK8SkMatrixPK7SkPaint
_ZN16SkOverdrawCanvas14onDrawDrawableEP10SkDrawablePK8SkMatrix
_ZN16SkOverdrawCanvas14onDrawTextBlobEPK10SkTextBlobffRK7SkPaint
_ZN16SkOverdrawCanvas15onDrawShadowRecERK6SkPathRK15SkDrawShadowRec
_ZN16SkOverdrawCanvas16onDrawAnnotationERK6SkRectPKcP6SkData
_ZN16SkOverdrawCanvas16onDrawEdgeAAQuadERK6SkRectPK7SkPointN8SkCanvas11QuadAAFlagsERK8SkRGBA4fIL11SkAlphaType3EE11SkBlendMode
_ZN16SkOverdrawCanvas16onDrawImageRect2EPK7SkImageRK6SkRectS5_RK17SkSamplingOptionsPK7SkPaintN8SkCanvas17SrcRectConstraintE
_ZN16SkOverdrawCanvas18onDrawGlyphRunListERKN6sktext12GlyphRunListERK7SkPaint
_ZN16SkOverdrawCanvas19onDrawImageLattice2EPK7SkImageRKN8SkCanvas7LatticeERK6SkRect12SkFilterModePK7SkPaint
_ZN16SkOverdrawCanvas20onDrawVerticesObjectEPK10SkVertices11SkBlendModeRK7SkPaint
_ZN16SkOverdrawCanvas21onDrawEdgeAAImageSet2EPKN8SkCanvas13ImageSetEntryEiPK7SkPointPK8SkMatrixRK17SkSamplingOptionsPK7SkPaintNS0_17SrcRectConstraintE
_ZN16SkOverdrawCanvas9onDrawArcERK6SkRectffbRK7SkPaint
_ZN16SkOverdrawCanvasC1EP8SkCanvas
_ZN16SkOverdrawCanvasC2EP8SkCanvas
_ZN16SkTrimPathEffect4MakeEffNS_4ModeE
_ZN16SkYUVAPixmapInfo18SupportedDataTypes14enableDataTypeENS_8DataTypeEi
_ZN16SkYUVAPixmapInfo22NumChannelsAndDataTypeE11SkColorType
_ZN16SkYUVAPixmapInfoC1ERK10SkYUVAInfoNS_8DataTypeEPKm
_ZN16SkYUVAPixmapInfoC1ERK10SkYUVAInfoPK11SkColorTypePKm
_ZN16SkYUVAPixmapInfoC2ERK10SkYUVAInfoNS_8DataTypeEPKm
_ZN16SkYUVAPixmapInfoC2ERK10SkYUVAInfoPK11SkColorTypePKm
_ZN17SkLumaColorFilter4MakeEv
_ZN17SkPictureRecorder14beginRecordingERK6SkRect5sk_spI15SkBBoxHierarchyE
_ZN17SkPictureRecorder14beginRecordingERK6SkRectP12SkBBHFactory
_ZN17SkPictureRecorder18getRecordingCanvasEv
_ZN17SkPictureRecorder24finishRecordingAsPictureEv
_ZN17SkPictureRecorder25finishRecordingAsDrawableEv
_ZN17SkPictureRecorder32finishRecordingAsPictureWithCullERK6SkRect
_ZN17SkPictureRecorderC1Ev
_ZN17SkPictureRecorderC2Ev
_ZN17SkPictureRecorderD1Ev
_ZN17SkPictureRecorderD2Ev
_ZN17SkTableMaskFilter10CreateClipEhh
_ZN17SkTableMaskFilter11CreateGammaEf
_ZN17SkTableMaskFilter13MakeClipTableEPhhh
_ZN17SkTableMaskFilter14MakeGammaTableEPhf
_ZN17SkTableMaskFilter20RegisterFlattenablesEv
_ZN17SkTableMaskFilter6CreateEPKh
_ZN17SkTextBlobBuilder11allocRunPosERK6SkFontiPK6SkRect
_ZN17SkTextBlobBuilder12allocRunPosHERK6SkFontifPK6SkRect
_ZN17SkTextBlobBuilder12allocRunTextERK6SkFontiffiPK6SkRect
_ZN17SkTextBlobBuilder13allocInternalERK6SkFontN10SkTextBlob16GlyphPositioningEii7SkPointPK6SkRect
_ZN17SkTextBlobBuilder14TightRunBoundsERKN10SkTextBlob9RunRecordE
_ZN17SkTextBlobBuilder15allocRunRSXformERK6SkFonti
_ZN17SkTextBlobBuilder15allocRunTextPosERK6SkFontiiPK6SkRect
_ZN17SkTextBlobBuilder16allocRunTextPosHERK6SkFontifiPK6SkRect
_ZN17SkTextBlobBuilder19allocRunTextRSXformERK6SkFontiiPK6SkRect
_ZN17SkTextBlobBuilder20updateDeferredBoundsEv
_ZN17SkTextBlobBuilder21ConservativeRunBoundsERKN10SkTextBlob9RunRecordE
_ZN17SkTextBlobBuilder4makeEv
_ZN17SkTextBlobBuilder7reserveEm
_ZN17SkTextBlobBuilder8allocRunERK6SkFontiffPK6SkRect
_ZN17SkTextBlobBuilder8mergeRunERK6SkFontN10SkTextBlob16GlyphPositioningEj7SkPoint
_ZN17SkTextBlobBuilderC1Ev
_ZN17SkTextBlobBuilderC2Ev
_ZN17SkTextBlobBuilderD1Ev
_ZN17SkTextBlobBuilderD2Ev
_ZN17SkTiledImageUtils13DrawImageRectEP8SkCanvasPK7SkImageRK6SkRectS7_RK17SkSamplingOptionsPK7SkPaintNS0_17SrcRectConstraintE
_ZN17SkTiledImageUtils17GetImageKeyValuesEPK7SkImagePj
_ZN18GrBackendSemaphoreC1ERKS_
_ZN18GrBackendSemaphoreC1Ev
_ZN18GrBackendSemaphoreC2ERKS_
_ZN18GrBackendSemaphoreC2Ev
_ZN18GrBackendSemaphoreD1Ev
_ZN18GrBackendSemaphoreD2Ev
_ZN18GrBackendSemaphoreaSERKS_
_ZN18GrRecordingContext10asRecorderEv
_ZN18GrRecordingContext15makeCPURecorderEv
_ZN18GrTextureGenerator15generateTextureEP18GrRecordingContextRK11SkImageInfoN5skgpu9MipmappedE19GrImageTexGenPolicy
_ZN18GrTextureGeneratorC2ERK11SkImageInfoj
_ZN18SkCanvasStateUtils18CaptureCanvasStateEP8SkCanvas
_ZN18SkCanvasStateUtils18ReleaseCanvasStateEP13SkCanvasState
_ZN18SkCanvasStateUtils19MakeFromCanvasStateEPK13SkCanvasState
_ZN18SkCornerPathEffect20RegisterFlattenablesEv
_ZN18SkCornerPathEffect4MakeEf
_ZN18SkLine2DPathEffect20RegisterFlattenablesEv
_ZN18SkLine2DPathEffect4MakeEfRK8SkMatrix
_ZN18SkPath1DPathEffect20RegisterFlattenablesEv
_ZN18SkPath1DPathEffect4MakeERK6SkPathffNS_5StyleE
_ZN18SkPath2DPathEffect20RegisterFlattenablesEv
_ZN18SkPath2DPathEffect4MakeERK8SkMatrixRK6SkPath
_ZN18SkShaderMaskFilter20RegisterFlattenablesEv
_ZN18SkShaderMaskFilter4MakeE5sk_spI8SkShaderE
_ZN19SkDiscardableMemory6CreateEm
_ZN19SkMeshSpecification25MakeFromSourceWithStructsE6SkSpanIKNS_9AttributeEEmS0_IKNS_7VaryingEERK8SkStringS9_5sk_spI12SkColorSpaceE11SkAlphaType
_ZN19SkMeshSpecification4MakeE6SkSpanIKNS_9AttributeEEmS0_IKNS_7VaryingEERK8SkStringS9_
_ZN19SkMeshSpecification4MakeE6SkSpanIKNS_9AttributeEEmS0_IKNS_7VaryingEERK8SkStringS9_5sk_spI12SkColorSpaceE
_ZN19SkMeshSpecification4MakeE6SkSpanIKNS_9AttributeEEmS0_IKNS_7VaryingEERK8SkStringS9_5sk_spI12SkColorSpaceE11SkAlphaType
_ZN19SkMeshSpecificationC1E6SkSpanIKNS_9AttributeEEmS0_IKNS_7VaryingEEijSt6vectorIN15SkRuntimeEffect7UniformESaIS9_EES7_INS8_5ChildESaISC_EESt10unique_ptrIKN4SkSL7ProgramESt14default_deleteISI_EESL_NS_9ColorTypeE5sk_spI12SkColorSpaceE11SkAlphaType
_ZN19SkMeshSpecificationC2E6SkSpanIKNS_9AttributeEEmS0_IKNS_7VaryingEEijSt6vectorIN15SkRuntimeEffect7UniformESaIS9_EES7_INS8_5ChildESaISC_EESt10unique_ptrIKN4SkSL7ProgramESt14default_deleteISI_EESL_NS_9ColorTypeE5sk_spI12SkColorSpaceE11SkAlphaType
_ZN19SkMeshSpecificationD1Ev
_ZN19SkMeshSpecificationD2Ev
_ZN19SkPaintFilterCanvas10onDrawOvalERK6SkRectRK7SkPaint
_ZN19SkPaintFilterCanvas10onDrawPathERK6SkPathRK7SkPaint
_ZN19SkPaintFilterCanvas10onDrawRectERK6SkRectRK7SkPaint
_ZN19SkPaintFilterCanvas11onDrawPaintERK7SkPaint
_ZN19SkPaintFilterCanvas11onDrawPatchEPK7SkPointPKjS2_11SkBlendModeRK7SkPaint
_ZN19SkPaintFilterCanvas11onDrawRRectERK7SkRRectRK7SkPaint
_ZN19SkPaintFilterCanvas12onDrawAtlas2EPK7SkImagePK9SkRSXformPK6SkRectPKji11SkBlendModeRK17SkSamplingOptionsS8_PK7SkPaint
_ZN19SkPaintFilterCanvas12onDrawBehindERK7SkPaint
_ZN19SkPaintFilterCanvas12onDrawDRRectERK7SkRRectS2_RK7SkPaint
_ZN19SkPaintFilterCanvas12onDrawImage2EPK7SkImageffRK17SkSamplingOptionsPK7SkPaint
_ZN19SkPaintFilterCanvas12onDrawPointsEN8SkCanvas9PointModeEmPK7SkPointRK7SkPaint
_ZN19SkPaintFilterCanvas12onDrawRegionERK8SkRegionRK7SkPaint
_ZN19SkPaintFilterCanvas12onNewSurfaceERK11SkImageInfoRK14SkSurfaceProps
_ZN19SkPaintFilterCanvas12onPeekPixelsEP8SkPixmap
_ZN19SkPaintFilterCanvas13onDrawPictureEPK9SkPicturePK8SkMatrixPK7SkPaint
_ZN19SkPaintFilterCanvas14onDrawDrawableEP10SkDrawablePK8SkMatrix
_ZN19SkPaintFilterCanvas14onDrawTextBlobEPK10SkTextBlobffRK7SkPaint
_ZN19SkPaintFilterCanvas15onDrawShadowRecERK6SkPathRK15SkDrawShadowRec
_ZN19SkPaintFilterCanvas16onDrawAnnotationERK6SkRectPKcP6SkData
_ZN19SkPaintFilterCanvas16onDrawEdgeAAQuadERK6SkRectPK7SkPointN8SkCanvas11QuadAAFlagsERK8SkRGBA4fIL11SkAlphaType3EE11SkBlendMode
_ZN19SkPaintFilterCanvas16onDrawImageRect2EPK7SkImageRK6SkRectS5_RK17SkSamplingOptionsPK7SkPaintN8SkCanvas17SrcRectConstraintE
_ZN19SkPaintFilterCanvas18onDrawGlyphRunListERKN6sktext12GlyphRunListERK7SkPaint
_ZN19SkPaintFilterCanvas19onDrawImageLattice2EPK7SkImageRKN8SkCanvas7LatticeERK6SkRect12SkFilterModePK7SkPaint
_ZN19SkPaintFilterCanvas20onDrawVerticesObjectEPK10SkVertices11SkBlendModeRK7SkPaint
_ZN19SkPaintFilterCanvas21onDrawEdgeAAImageSet2EPKN8SkCanvas13ImageSetEntryEiPK7SkPointPK8SkMatrixRK17SkSamplingOptionsPK7SkPaintNS0_17SrcRectConstraintE
_ZN19SkPaintFilterCanvas22onAccessTopLayerPixelsEP8SkPixmap
_ZN19SkPaintFilterCanvas9onDrawArcERK6SkRectffbRK7SkPaint
_ZN19SkPaintFilterCanvasC2EP8SkCanvas
_ZN20SkContainerAllocator8allocateEid
_ZN20SkContourMeasureIter4Impl13buildSegmentsEv
_ZN20SkContourMeasureIter4Impl16compute_line_segE7SkPointS1_fj
_ZN20SkContourMeasureIter4Impl17compute_quad_segsEPK7SkPointfiiji
_ZN20SkContourMeasureIter4Impl18compute_conic_segsERK7SkConicfiRK7SkPointiS6_ji
_ZN20SkContourMeasureIter4Impl18compute_cubic_segsEPK7SkPointfiiji
_ZN20SkContourMeasureIter4nextEv
_ZN20SkContourMeasureIter5resetERK6SkPathbf
_ZN20SkContourMeasureIterC1EOS_
_ZN20SkContourMeasureIterC1ERK6SkPathbf
_ZN20SkContourMeasureIterC1Ev
_ZN20SkContourMeasureIterC2EOS_
_ZN20SkContourMeasureIterC2ERK6SkPathbf
_ZN20SkContourMeasureIterC2Ev
_ZN20SkContourMeasureIterD1Ev
_ZN20SkContourMeasureIterD2Ev
_ZN20SkContourMeasureIteraSEOS_
_ZN20SkDiscretePathEffect20RegisterFlattenablesEv
_ZN20SkDiscretePathEffect4MakeEffj
_ZN20SkHighContrastFilter4MakeERK20SkHighContrastConfig
_ZN20SkJpegGainmapEncoder11EncodeHDRGMEP9SkWStreamRK8SkPixmapRKN13SkJpegEncoder7OptionsES4_S8_RK13SkGainmapInfo
_ZN20SkJpegGainmapEncoder7MakeMPFEP9SkWStreamPPK6SkDatam
_ZN21GrBackendRenderTarget15setMutableStateERKN5skgpu19MutableTextureStateE
_ZN21GrBackendRenderTarget18TestingOnly_EqualsERKS_S1_
_ZN21GrBackendRenderTarget7cleanupEv
_ZN21GrBackendRenderTargetC1ERKS_
_ZN21GrBackendRenderTargetC1EiiiiRK22GrMockRenderTargetInfo
_ZN21GrBackendRenderTargetC1Ev
_ZN21GrBackendRenderTargetC2ERKS_
_ZN21GrBackendRenderTargetC2EiiiiRK22GrMockRenderTargetInfo
_ZN21GrBackendRenderTargetC2Ev
_ZN21GrBackendRenderTargetD1Ev
_ZN21GrBackendRenderTargetD2Ev
_ZN21GrBackendRenderTargetaSERKS_
_ZN21GrDeferredDisplayList15ProgramIterator4nextEv
_ZN21GrDeferredDisplayList15ProgramIterator7compileEv
_ZN21GrDeferredDisplayList15ProgramIteratorC1EP15GrDirectContextPS_
_ZN21GrDeferredDisplayList15ProgramIteratorC2EP15GrDirectContextPS_
_ZN21GrDeferredDisplayList15ProgramIteratorD1Ev
_ZN21GrDeferredDisplayList15ProgramIteratorD2Ev
_ZN21GrDeferredDisplayListC1ERK25GrSurfaceCharacterization5sk_spI19GrRenderTargetProxyES3_INS_13LazyProxyDataEE
_ZN21GrDeferredDisplayListC2ERK25GrSurfaceCharacterization5sk_spI19GrRenderTargetProxyES3_INS_13LazyProxyDataEE
_ZN21GrDeferredDisplayListD1Ev
_ZN21GrDeferredDisplayListD2Ev
_ZN21GrPromiseImageTextureC1ERK16GrBackendTexture
_ZN21GrPromiseImageTextureC2ERK16GrBackendTexture
_ZN21GrPromiseImageTextureD1Ev
_ZN21GrPromiseImageTextureD2Ev
_ZN21GrYUVABackendTexturesC1ERK10SkYUVAInfoPK16GrBackendTexture15GrSurfaceOrigin
_ZN21GrYUVABackendTexturesC2ERK10SkYUVAInfoPK16GrBackendTexture15GrSurfaceOrigin
_ZN21SkJpegMetadataDecoder4MakeE5sk_spIK6SkDataE
_ZN21SkJpegMetadataDecoder4MakeESt6vectorINS_7SegmentESaIS1_EE
_ZN21SkOverdrawColorFilter16MakeWithSkColorsEPKj
_ZN21SkTextBlobRunIterator4nextEv
_ZN21SkTextBlobRunIteratorC1EPK10SkTextBlob
_ZN21SkTextBlobRunIteratorC2EPK10SkTextBlob
_ZN22GrDriverBugWorkarounds14applyOverridesERKS_
_ZN22GrDriverBugWorkaroundsC1ERKSt6vectorIiSaIiEE
_ZN22GrDriverBugWorkaroundsC2ERKSt6vectorIiSaIiEE
_ZN22SkDynamicMemoryWStream11padToAlign4Ev
_ZN22SkDynamicMemoryWStream12detachAsDataEv
_ZN22SkDynamicMemoryWStream14copyToAndResetEPv
_ZN22SkDynamicMemoryWStream14detachAsStreamEv
_ZN22SkDynamicMemoryWStream14detachAsVectorEv
_ZN22SkDynamicMemoryWStream15writeToAndResetEP9SkWStream
_ZN22SkDynamicMemoryWStream15writeToAndResetEPS_
_ZN22SkDynamicMemoryWStream17prependToAndResetEPS_
_ZN22SkDynamicMemoryWStream4readEPvmm
_ZN22SkDynamicMemoryWStream5resetEv
_ZN22SkDynamicMemoryWStream5writeEPKvm
_ZN22SkDynamicMemoryWStreamC1EOS_
_ZN22SkDynamicMemoryWStreamC2EOS_
_ZN22SkDynamicMemoryWStreamD0Ev
_ZN22SkDynamicMemoryWStreamD1Ev
_ZN22SkDynamicMemoryWStreamD2Ev
_ZN22SkDynamicMemoryWStreamaSEOS_
_ZN22SkMultiPictureDocument13ReadPageCountEP16SkStreamSeekable
_ZN22SkMultiPictureDocument4MakeEP9SkWStreamPK13SkSerialProcsSt8functionIFvPK9SkPictureEE
_ZN22SkMultiPictureDocument4ReadEP16SkStreamSeekableP14SkDocumentPageiPK15SkDeserialProcs
_ZN22skjpeg_destination_mgrC1EP9SkWStream
_ZN22skjpeg_destination_mgrC2EP9SkWStream
_ZN23SkCustomTypefaceBuilder10setMetricsERK13SkFontMetricsf
_ZN23SkCustomTypefaceBuilder11DeserializeEP8SkStream
_ZN23SkCustomTypefaceBuilder12setFontStyleE11SkFontStyle
_ZN23SkCustomTypefaceBuilder13ensureStorageEt
_ZN23SkCustomTypefaceBuilder14MakeFromStreamESt10unique_ptrI13SkStreamAssetSt14default_deleteIS1_EERK15SkFontArguments
_ZN23SkCustomTypefaceBuilder6detachEv
_ZN23SkCustomTypefaceBuilder8setGlyphEtf5sk_spI10SkDrawableERK6SkRect
_ZN23SkCustomTypefaceBuilder8setGlyphEtfRK6SkPath
_ZN23SkCustomTypefaceBuilderC1Ev
_ZN23SkCustomTypefaceBuilderC2Ev
_ZN23SkRasterHandleAllocator10MakeCanvasESt10unique_ptrIS_St14default_deleteIS_EERK11SkImageInfoPKNS_3RecEPK14SkSurfaceProps
_ZN23SkRasterHandleAllocator11allocBitmapERK11SkImageInfoP8SkBitmap
_ZN24GrContextThreadSafeProxy14abandonContextEv
_ZN24GrContextThreadSafeProxy22createCharacterizationEmRK11SkImageInfoRK15GrBackendFormati15GrSurfaceOriginRK14SkSurfacePropsN5skgpu9MipmappedEbbNSA_9ProtectedEbb
_ZN24GrContextThreadSafeProxy32isValidCharacterizationForVulkanE5sk_spIK6GrCapsEbN5skgpu9MipmappedENS4_9ProtectedEbb
_ZN24GrContextThreadSafeProxy4initE5sk_spIK6GrCapsES0_I27GrThreadSafePipelineBuilderE
_ZN24GrContextThreadSafeProxyC1E12GrBackendApiRK16GrContextOptions
_ZN24GrContextThreadSafeProxyC2E12GrBackendApiRK16GrContextOptions
_ZN24GrContextThreadSafeProxyD0Ev
_ZN24GrContextThreadSafeProxyD1Ev
_ZN24GrContextThreadSafeProxyD2Ev
_ZN24GrYUVABackendTextureInfoC1ERK10SkYUVAInfoPK15GrBackendFormatN5skgpu9MipmappedE15GrSurfaceOrigin
_ZN24GrYUVABackendTextureInfoC2ERK10SkYUVAInfoPK15GrBackendFormatN5skgpu9MipmappedE15GrSurfaceOrigin
_ZN26GrExternalTextureGenerator17onGenerateTextureEP18GrRecordingContextRK11SkImageInfoN5skgpu9MipmappedE19GrImageTexGenPolicy
_ZN26GrExternalTextureGeneratorC2ERK11SkImageInfo
_ZN29GrDeferredDisplayListRecorder4initEv
_ZN29GrDeferredDisplayListRecorder6detachEv
_ZN29GrDeferredDisplayListRecorder9getCanvasEv
_ZN29GrDeferredDisplayListRecorderC1ERK25GrSurfaceCharacterization
_ZN29GrDeferredDisplayListRecorderC2ERK25GrSurfaceCharacterization
_ZN29GrDeferredDisplayListRecorderD1Ev
_ZN29GrDeferredDisplayListRecorderD2Ev
_ZN4SkSL8Compiler10POISON_TAGE
_ZN4SkSL8Compiler10runInlinerEPNS_7InlinerERKSt6vectorISt10unique_ptrINS_14ProgramElementESt14default_deleteIS5_EESaIS8_EEPNS_11SymbolTableEPNS_12ProgramUsageE
_ZN4SkSL8Compiler10runInlinerERNS_7ProgramE
_ZN4SkSL8Compiler10sOptimizerE
_ZN4SkSL8Compiler11handleErrorESt17basic_string_viewIcSt11char_traitsIcEENS_8PositionE
_ZN4SkSL8Compiler13POSITION_NAMEE
_ZN4SkSL8Compiler13RTADJUST_NAMEE
_ZN4SkSL8Compiler13compileModuleENS_11ProgramKindENS_10ModuleTypeENSt7__cxx1112basic_stringIcSt11char_traitsIcESaIcEEEPKNS_6ModuleEb
_ZN4SkSL8Compiler14FRAGCOLOR_NAMEE
_ZN4SkSL8Compiler14cleanupContextEv
_ZN4SkSL8Compiler14convertProgramENS_11ProgramKindENSt7__cxx1112basic_stringIcSt11char_traitsIcESaIcEEERKNS_15ProgramSettingsE
_ZN4SkSL8Compiler14releaseProgramESt10unique_ptrINSt7__cxx1112basic_stringIcSt11char_traitsIcESaIcEEESt14default_deleteIS7_EESt6vectorIS1_INS_14ProgramElementES8_ISC_EESaISE_EE
_ZN4SkSL8Compiler15writeErrorCountEv
_ZN4SkSL8Compiler16FinalizeSettingsEPNS_15ProgramSettingsENS_11ProgramKindE
_ZN4SkSL8Compiler17initializeContextEPKNS_6ModuleENS_11ProgramKindENS_15ProgramSettingsESt17basic_string_viewIcSt11char_traitsIcEENS_10ModuleTypeE
_ZN4SkSL8Compiler20moduleForProgramKindENS_11ProgramKindE
_ZN4SkSL8Compiler26optimizeModuleAfterLoadingENS_11ProgramKindERNS_6ModuleE
_ZN4SkSL8Compiler29optimizeModuleBeforeMinifyingENS_11ProgramKindERNS_6ModuleEb
_ZN4SkSL8Compiler8finalizeERNS_7ProgramE
_ZN4SkSL8Compiler8optimizeERNS_7ProgramE
_ZN4SkSL8Compiler8sInlinerE
_ZN4SkSL8Compiler9errorTextB5cxx11Eb
_ZN4SkSL8CompilerC1Ev
_ZN4SkSL8CompilerC2Ev
_ZN4SkSL8CompilerD1Ev
_ZN4SkSL8CompilerD2Ev
_ZN5SkM4410RectToRectERK6SkRectS2_
_ZN5SkM4411PerspectiveEfff
_ZN5SkM4412preTranslateEfff
_ZN5SkM4413postTranslateEfff
_ZN5SkM4419setRotateUnitSinCosE4SkV3ff
_ZN5SkM4420normalizePerspectiveEv
_ZN5SkM446LookAtERK4SkV3S2_S2_
_ZN5SkM448preScaleEff
_ZN5SkM448preScaleEfff
_ZN5SkM449preConcatERK8SkMatrix
_ZN5SkM449setConcatERKS_S1_
_ZN5SkM449setRotateE4SkV3f
_ZN5SkPDF12MakeDocumentEP9SkWStreamRKNS_8MetadataE
_ZN5SkPDF13AttributeListC1Ev
_ZN5SkPDF13AttributeListC2Ev
_ZN5SkPDF13AttributeListD1Ev
_ZN5SkPDF13AttributeListD2Ev
_ZN5SkPDF9SetNodeIdEP8SkCanvasi
_ZN5SkUTF10CountUTF16EPKtm
_ZN5SkUTF10CountUTF32EPKim
_ZN5SkUTF11UTF16ToUTF8EPciPKtm
_ZN5SkUTF11UTF8ToUTF16EPtiPKcm
_ZN5SkUTF23NextUTF8WithReplacementEPPKcS1_
_ZN5SkUTF6ToUTF8EiPc
_ZN5SkUTF7ToUTF16EiPt
_ZN5SkUTF8NextUTF8EPPKcS1_
_ZN5SkUTF9CountUTF8EPKcm
_ZN5SkUTF9NextUTF16EPPKtS1_
_ZN5SkUTF9NextUTF32EPPKiS1_
_ZN5SkXmp4MakeE5sk_spI6SkDataE
_ZN5SkXmp4MakeE5sk_spI6SkDataES2_
_ZN5skcpu7Context4MakeERKNS0_7OptionsE
_ZN5skcpu7Context4MakeEv
_ZN5skcpu8Recorder17makeBitmapSurfaceERK11SkImageInfoPK14SkSurfaceProps
_ZN5skcpu8Recorder17makeBitmapSurfaceERK11SkImageInfomPK14SkSurfaceProps
_ZN5skcpu8Recorder4TODOEv
_ZN5skgpu19MutableTextureState3setERKS0_
_ZN5skgpu19MutableTextureStateC1ERKS0_
_ZN5skgpu19MutableTextureStateC1Ev
_ZN5skgpu19MutableTextureStateC2ERKS0_
_ZN5skgpu19MutableTextureStateC2Ev
_ZN5skgpu19MutableTextureStateD0Ev
_ZN5skgpu19MutableTextureStateD1Ev
_ZN5skgpu19MutableTextureStateD2Ev
_ZN5skgpu19MutableTextureStateaSERKS0_
_ZN5skgpu6ganesh14FlushAndSubmitE5sk_spI9SkSurfaceE
_ZN5skgpu6ganesh14FlushAndSubmitEP9SkSurface
_ZN5skgpu6ganesh5FlushE5sk_spI9SkSurfaceE
_ZN5skgpu6ganesh5FlushEP9SkSurface
_ZN5skgpu6ganesh7DrawDDLE5sk_spI9SkSurfaceES1_IK21GrDeferredDisplayListE
_ZN5skgpu6ganesh7DrawDDLEP9SkSurface5sk_spIK21GrDeferredDisplayListE
_ZN5skhdr27MasteringDisplayColorVolume5parseEPK6SkData
_ZN5skhdr28ContentLightLevelInformation13parsePngChunkEPK6SkData
_ZN5skhdr28ContentLightLevelInformation5parseEPK6SkData
_ZN5skhdr4Agtm18MakeReferenceWhiteEff
_ZN5skhdr4Agtm4MakeEPK6SkData
_ZN5skhdr4Agtm9MakeClampEff
_ZN5skhdr8Metadata17setSerializedAgtmE5sk_spIK6SkDataE
_ZN5skhdr8Metadata30setMasteringDisplayColorVolumeERKNS_27MasteringDisplayColorVolumeE
_ZN5skhdr8Metadata31setContentLightLevelInformationERKNS_28ContentLightLevelInformationE
_ZN5skhdr8Metadata9MakeEmptyEv
_ZN6SkData10MakeFromFDEi
_ZN6SkData11shareSubsetEmm
_ZN6SkData12MakeFromFILEEP8_IO_FILE
_ZN6SkData12MakeWithCopyEPKvm
_ZN6SkData12MakeWithProcEPKvmPFvS1_PvES2_
_ZN6SkData14MakeFromMallocEPKvm
_ZN6SkData14MakeFromStreamEP8SkStreamm
_ZN6SkData15MakeWithCStringEPKc
_ZN6SkData15NoopReleaseProcEPKvPv
_ZN6SkData16MakeFromFileNameEPKc
_ZN6SkData17MakeUninitializedEm
_ZN6SkData18PrivateNewWithCopyEPKvm
_ZN6SkData19MakeZeroInitializedEm
_ZN6SkData9MakeEmptyEv
_ZN6SkDataC1E6SkSpanISt4byteEPFvPKvPvES5_
_ZN6SkDataC1Em
_ZN6SkDataC2E6SkSpanISt4byteEPFvPKvPvES5_
_ZN6SkDataC2Em
_ZN6SkDataD1Ev
_ZN6SkDataD2Ev
_ZN6SkDatadlEPv
_ZN6SkExif5ParseERNS_8MetadataEPK6SkData
_ZN6SkFont10setHintingE13SkFontHinting
_ZN6SkFont11setEmboldenEb
_ZN6SkFont11setSubpixelEb
_ZN6SkFont11setTypefaceE5sk_spI10SkTypefaceE
_ZN6SkFont15setBaselineSnapEb
_ZN6SkFont15setupForAsPathsEP7SkPaint
_ZN6SkFont16setLinearMetricsEb
_ZN6SkFont18setEmbeddedBitmapsEb
_ZN6SkFont19setForceAutoHintingEb
_ZN6SkFont7setSizeEf
_ZN6SkFont8setSkewXEf
_ZN6SkFont9setEdgingENS_6EdgingE
_ZN6SkFont9setScaleXEf
_ZN6SkFontC1E5sk_spI10SkTypefaceE
_ZN6SkFontC1E5sk_spI10SkTypefaceEf
_ZN6SkFontC1E5sk_spI10SkTypefaceEfff
_ZN6SkFontC1Ev
_ZN6SkFontC2E5sk_spI10SkTypefaceE
_ZN6SkFontC2E5sk_spI10SkTypefaceEf
_ZN6SkFontC2E5sk_spI10SkTypefaceEfff
_ZN6SkFontC2Ev
_ZN6SkMesh11IndexBuffer6updateEP15GrDirectContextPKvmm
_ZN6SkMesh11MakeIndexedE5sk_spI19SkMeshSpecificationENS_4ModeES0_INS_12VertexBufferEEmmS0_INS_11IndexBufferEEmmS0_IK6SkDataE6SkSpanIN15SkRuntimeEffect8ChildPtrEERK6SkRect
_ZN6SkMesh12VertexBuffer6updateEP15GrDirectContextPKvmm
_ZN6SkMesh4MakeE5sk_spI19SkMeshSpecificationENS_4ModeES0_INS_12VertexBufferEEmmS0_IK6SkDataE6SkSpanIN15SkRuntimeEffect8ChildPtrEERK6SkRect
_ZN6SkMeshC1EOS_
_ZN6SkMeshC1ERKS_
_ZN6SkMeshC1Ev
_ZN6SkMeshC2EOS_
_ZN6SkMeshC2ERKS_
_ZN6SkMeshC2Ev
_ZN6SkMeshD1Ev
_ZN6SkMeshD2Ev
_ZN6SkMeshaSEOS_
_ZN6SkMeshaSERKS_
_ZN6SkPath11readAsRRectEPKvm
_ZN6SkPath13MakeNullCheckE5sk_spI10SkPathDataE14SkPathFillTypeb
_ZN6SkPath14ReadFromMemoryEPKvmPm
_ZN6SkPath16IsLineDegenerateERK7SkPointS2_b
_ZN6SkPath16IsQuadDegenerateERK7SkPointS2_S2_b
_ZN6SkPath17IsCubicDegenerateERK7SkPointS2_S2_S2_b
_ZN6SkPath18PeekErrorSingletonEv
_ZN6SkPath19ConvertConicToQuadsERK7SkPointS2_S2_fPS0_i
_ZN6SkPath3RawE6SkSpanIK7SkPointES0_IK10SkPathVerbES0_IKfE14SkPathFillTypeb
_ZN6SkPath4Iter4nextEP7SkPoint
_ZN6SkPath4Iter4nextEv
_ZN6SkPath4Iter7setPathERKS_b
_ZN6SkPath4Iter9autoCloseEP7SkPoint
_ZN6SkPath4IterC1ERKS_b
_ZN6SkPath4IterC1Ev
_ZN6SkPath4IterC2ERKS_b
_ZN6SkPath4IterC2Ev
_ZN6SkPath4OvalERK6SkRect15SkPathDirection
_ZN6SkPath4OvalERK6SkRect15SkPathDirectionj
_ZN6SkPath4RectERK6SkRect14SkPathFillType15SkPathDirectionj
_ZN6SkPath4swapERS_
_ZN6SkPath5RRectERK6SkRectff15SkPathDirection
_ZN6SkPath5RRectERK7SkRRect15SkPathDirection
_ZN6SkPath5RRectERK7SkRRect15SkPathDirectionj
_ZN6SkPath5resetEv
_ZN6SkPath6CircleEfff15SkPathDirection
_ZN6SkPath7PolygonE6SkSpanIK7SkPointEb14SkPathFillTypeb
_ZN6SkPath7RawIter4nextEP7SkPoint
_ZN6SkPath7RawIter4nextEv
_ZN6SkPath7RawIter7setPathERKS_
_ZN6SkPathC1E14SkPathFillType
_ZN6SkPathC1E5sk_spI10SkPathDataE14SkPathFillTypeb
_ZN6SkPathC1ERKS_
_ZN6SkPathC2E14SkPathFillType
_ZN6SkPathC2E5sk_spI10SkPathDataE14SkPathFillTypeb
_ZN6SkPathC2ERKS_
_ZN6SkPathD1Ev
_ZN6SkPathD2Ev
_ZN6SkPathaSERKS_
_ZN6SkRect14setBoundsCheckE6SkSpanIK7SkPointE
_ZN6SkRect16setBoundsNoCheckE6SkSpanIK7SkPointE
_ZN6SkRect4joinERKS_
_ZN6SkRect6BoundsE6SkSpanIK7SkPointE
_ZN6SkRect9intersectERKS_
_ZN6SkRect9intersectERKS_S1_
_ZN6sktext3gpu4Slug11ConvertBlobEP8SkCanvasRK10SkTextBlob7SkPointRK7SkPaint
_ZN6sktext3gpu4Slug11DeserializeEPKvmPK14SkStrikeClient
_ZN6sktext3gpu4Slug12NextUniqueIDEv
_ZN6sktext3gpu4Slug14MakeFromBufferER12SkReadBuffer
_ZN6sktext3gpu4Slug16AddDeserialProcsEP15SkDeserialProcsPK14SkStrikeClient
_ZN7SkCodec12MakeFromDataE5sk_spIK6SkDataE6SkSpanIKN8SkCodecs7DecoderEEP16SkPngChunkReader
_ZN7SkCodec12MakeFromDataE5sk_spIK6SkDataEP16SkPngChunkReader
_ZN7SkCodec12getFrameInfoEv
_ZN7SkCodec12getScanlinesEPvim
_ZN7SkCodec12rewindStreamEv
_ZN7SkCodec13getYUVAPlanesERK13SkYUVAPixmaps
_ZN7SkCodec13skipScanlinesEi
_ZN7SkCodec14MakeFromStreamESt10unique_ptrI8SkStreamSt14default_deleteIS1_EE6SkSpanIKN8SkCodecs7DecoderEEPNS_6ResultEP16SkPngChunkReaderNS_15SelectionPolicyE
_ZN7SkCodec14MakeFromStreamESt10unique_ptrI8SkStreamSt14default_deleteIS1_EEPNS_6ResultEP16SkPngChunkReaderNS_15SelectionPolicyE
_ZN7SkCodec14ResultToStringENS_6ResultE
_ZN7SkCodec14rewindIfNeededEv
_ZN7SkCodec16handleFrameIndexERK11SkImageInfoPvmRKNS_7OptionsESt8functionIFNS_6ResultES2_S3_mS6_iEE
_ZN7SkCodec19conversionSupportedERK11SkImageInfobb
_ZN7SkCodec19fillIncompleteImageERK11SkImageInfoPvmNS_15ZeroInitializedEii
_ZN7SkCodec19startScanlineDecodeERK11SkImageInfoPKNS_7OptionsE
_ZN7SkCodec20initializeColorXformERK11SkImageInfoN13SkEncodedInfo5AlphaEb
_ZN7SkCodec22startIncrementalDecodeERK11SkImageInfoPvmPKNS_7OptionsE
_ZN7SkCodec8getImageERK11SkImageInfoPKNS_7OptionsE
_ZN7SkCodec8getImageEv
_ZN7SkCodec9getPixelsERK11SkImageInfoPvmPKNS_7OptionsE
_ZN7SkCodecC2EO13SkEncodedInfo17skcms_PixelFormatSt10unique_ptrI8SkStreamSt14default_deleteIS4_EE15SkEncodedOrigin
_ZN7SkCodecD0Ev
_ZN7SkCodecD1Ev
_ZN7SkCodecD2Ev
_ZN7SkDeque10push_frontEv
_ZN7SkDeque13allocateBlockEi
_ZN7SkDeque4Iter4nextEv
_ZN7SkDeque4Iter4prevEv
_ZN7SkDeque4Iter5resetERKS_NS0_9IterStartE
_ZN7SkDeque4IterC1ERKS_NS0_9IterStartE
_ZN7SkDeque4IterC1Ev
_ZN7SkDeque4IterC2ERKS_NS0_9IterStartE
_ZN7SkDeque4IterC2Ev
_ZN7SkDeque8pop_backEv
_ZN7SkDeque9freeBlockEPNS_5BlockE
_ZN7SkDeque9pop_frontEv
_ZN7SkDeque9push_backEv
_ZN7SkDequeC1EmPvmi
_ZN7SkDequeC1Emi
_ZN7SkDequeC2EmPvmi
_ZN7SkDequeC2Emi
_ZN7SkDequeD1Ev
_ZN7SkDequeD2Ev
_ZN7SkIRect4joinERKS_
_ZN7SkIRect9intersectERKS_S1_
_ZN7SkImageC2ERK11SkImageInfoj
_ZN7SkPaint10setBlenderE5sk_spI9SkBlenderE
_ZN7SkPaint12setBlendModeE11SkBlendMode
_ZN7SkPaint12setStrokeCapENS_3CapE
_ZN7SkPaint13setMaskFilterE5sk_spI12SkMaskFilterE
_ZN7SkPaint13setPathEffectE5sk_spI12SkPathEffectE
_ZN7SkPaint13setStrokeJoinENS_4JoinE
_ZN7SkPaint14setColorFilterE5sk_spI13SkColorFilterE
_ZN7SkPaint14setImageFilterE5sk_spI13SkImageFilterE
_ZN7SkPaint14setStrokeMiterEf
_ZN7SkPaint14setStrokeWidthEf
_ZN7SkPaint5resetEv
_ZN7SkPaint7setARGBEjjjj
_ZN7SkPaint8setColorERK8SkRGBA4fIL11SkAlphaType3EEP12SkColorSpace
_ZN7SkPaint8setColorEj
_ZN7SkPaint8setStyleENS_5StyleE
_ZN7SkPaint9setAlphafEf
_ZN7SkPaint9setShaderE5sk_spI8SkShaderE
_ZN7SkPaint9setStrokeEb
_ZN7SkPaintC1EOS_
_ZN7SkPaintC1ERK8SkRGBA4fIL11SkAlphaType3EEP12SkColorSpace
_ZN7SkPaintC1ERKS_
_ZN7SkPaintC1Ev
_ZN7SkPaintC2EOS_
_ZN7SkPaintC2ERK8SkRGBA4fIL11SkAlphaType3EEP12SkColorSpace
_ZN7SkPaintC2ERKS_
_ZN7SkPaintC2Ev
_ZN7SkPaintD1Ev
_ZN7SkPaintD2Ev
_ZN7SkPaintaSEOS_
_ZN7SkPaintaSERKS_
_ZN7SkParse10FindScalarEPKcPf
_ZN7SkParse11FindScalarsEPKcPfi
_ZN7SkParse14FindNamedColorEPKcmPj
_ZN7SkParse5CountEPKc
_ZN7SkParse5CountEPKcc
_ZN7SkParse7FindHexEPKcPj
_ZN7SkParse7FindS32EPKcPi
_ZN7SkParse8FindBoolEPKcPb
_ZN7SkParse8FindListEPKcS1_
_ZN7SkParse9FindColorEPKcPj
_ZN7SkPoint12setNormalizeEff
_ZN7SkPoint6LengthEff
_ZN7SkPoint9NormalizeEPS_
_ZN7SkPoint9normalizeEv
_ZN7SkPoint9setLengthEf
_ZN7SkPoint9setLengthEfff
_ZN7SkRRect10scaleRadiiEv
_ZN7SkRRect11computeTypeEv
_ZN7SkRRect12setNinePatchERK6SkRectffff
_ZN7SkRRect12setRectRadiiERK6SkRectPK7SkPoint
_ZN7SkRRect14initializeRectERK6SkRect
_ZN7SkRRect14readFromMemoryEPKvm
_ZN7SkRRect20AreRectAndRadiiValidERK6SkRectPK7SkPoint
_ZN7SkRRect7setOvalERK6SkRect
_ZN7SkRRect9setRectXYERK6SkRectff
_ZN7android4skia19FrontBufferedStream4MakeESt10unique_ptrI8SkStreamSt14default_deleteIS3_EEm
_ZN8Sk3DView4saveEv
_ZN8Sk3DView7restoreEv
_ZN8Sk3DView7rotateXEf
_ZN8Sk3DView7rotateYEf
_ZN8Sk3DView7rotateZEf
_ZN8Sk3DView9translateEfff
_ZN8Sk3DViewC1Ev
_ZN8Sk3DViewC2Ev
_ZN8Sk3DViewD1Ev
_ZN8Sk3DViewD2Ev
_ZN8SkBitmap11allocPixelsEPNS_9AllocatorE
_ZN8SkBitmap11allocPixelsERK11SkImageInfo
_ZN8SkBitmap11allocPixelsERK11SkImageInfom
_ZN8SkBitmap11allocPixelsEv
_ZN8SkBitmap11setPixelRefE5sk_spI10SkPixelRefEii
_ZN8SkBitmap11writePixelsERK8SkPixmapii
_ZN8SkBitmap12setAlphaTypeE11SkAlphaType
_ZN8SkBitmap12setImmutableEv
_ZN8SkBitmap13HeapAllocator13allocPixelRefEPS_
_ZN8SkBitmap13installPixelsERK11SkImageInfoPvmPFvS3_S3_ES3_
_ZN8SkBitmap13installPixelsERK8SkPixmap
_ZN8SkBitmap13setColorSpaceE5sk_spI12SkColorSpaceE
_ZN8SkBitmap14allocN32PixelsEiib
_ZN8SkBitmap14tryAllocPixelsEPNS_9AllocatorE
_ZN8SkBitmap14tryAllocPixelsERK11SkImageInfom
_ZN8SkBitmap16allocPixelsFlagsERK11SkImageInfoj
_ZN8SkBitmap17installMaskPixelsER13SkMaskBuilder
_ZN8SkBitmap17tryAllocN32PixelsEiib
_ZN8SkBitmap19tryAllocPixelsFlagsERK11SkImageInfoj
_ZN8SkBitmap4swapERS_
_ZN8SkBitmap5resetEv
_ZN8SkBitmap7setInfoERK11SkImageInfom
_ZN8SkBitmap9setPixelsEPv
_ZN8SkBitmapC1EOS_
_ZN8SkBitmapC1ERKS_
_ZN8SkBitmapC1Ev
_ZN8SkBitmapC2EOS_
_ZN8SkBitmapC2ERKS_
_ZN8SkBitmapC2Ev
_ZN8SkBitmapD1Ev
_ZN8SkBitmapD2Ev
_ZN8SkBitmapaSEOS_
_ZN8SkBitmapaSERKS_
_ZN8SkCanvas10clipRegionERK8SkRegion8SkClipOp
_ZN8SkCanvas10clipShaderE5sk_spI8SkShaderE8SkClipOp
_ZN8SkCanvas10drawCircleEfffRK7SkPaint
_ZN8SkCanvas10drawDRRectERK7SkRRectS2_RK7SkPaint
_ZN8SkCanvas10drawGlyphsE6SkSpanIKtES0_IK7SkPointES0_IKjES0_IKcES3_RK6SkFontRK7SkPaint
_ZN8SkCanvas10drawGlyphsE6SkSpanIKtES0_IK7SkPointES3_RK6SkFontRK7SkPaint
_ZN8SkCanvas10drawPointsENS_9PointModeE6SkSpanIK7SkPointERK7SkPaint
_ZN8SkCanvas10drawRegionERK8SkRegionRK7SkPaint
_ZN8SkCanvas10onClipPathERK6SkPath8SkClipOpNS_13ClipEdgeStyleE
_ZN8SkCanvas10onClipRectERK6SkRect8SkClipOpNS_13ClipEdgeStyleE
_ZN8SkCanvas10onDrawMeshERK6SkMesh5sk_spI9SkBlenderERK7SkPaint
_ZN8SkCanvas10onDrawOvalERK6SkRectRK7SkPaint
_ZN8SkCanvas10onDrawPathERK6SkPathRK7SkPaint
_ZN8SkCanvas10onDrawRectERK6SkRectRK7SkPaint
_ZN8SkCanvas10onDrawSlugEPKN6sktext3gpu4SlugERK7SkPaint
_ZN8SkCanvas10peekPixelsEP8SkPixmap
_ZN8SkCanvas10readPixelsERK11SkImageInfoPvmii
_ZN8SkCanvas10readPixelsERK8SkBitmapii
_ZN8SkCanvas10readPixelsERK8SkPixmapii
_ZN8SkCanvas11aboutToDrawERK7SkPaintPK6SkRect
_ZN8SkCanvas11aboutToDrawERK7SkPaintPK6SkRect13SkEnumBitMaskINS_12PredrawFlagsEE
_ZN8SkCanvas11drawPictureEPK9SkPicturePK8SkMatrixPK7SkPaint
_ZN8SkCanvas11makeSurfaceERK11SkImageInfoPK14SkSurfaceProps
_ZN8SkCanvas11onClipRRectERK7SkRRect8SkClipOpNS_13ClipEdgeStyleE
_ZN8SkCanvas11onDrawPaintERK7SkPaint
_ZN8SkCanvas11onDrawPatchEPK7SkPointPKjS2_11SkBlendModeRK7SkPaint
_ZN8SkCanvas11onDrawRRectERK7SkRRectRK7SkPaint
_ZN8SkCanvas11onResetClipEv
_ZN8SkCanvas11resetMatrixEv
_ZN8SkCanvas11writePixelsERK11SkImageInfoPKvmii
_ZN8SkCanvas11writePixelsERK8SkBitmapii
_ZN8SkCanvas12drawDrawableEP10SkDrawablePK8SkMatrix
_ZN8SkCanvas12drawDrawableEP10SkDrawableff
_ZN8SkCanvas12drawTextBlobEPK10SkTextBlobffRK7SkPaint
_ZN8SkCanvas12drawVerticesEPK10SkVertices11SkBlendModeRK7SkPaint
_ZN8SkCanvas12drawVerticesERK5sk_spI10SkVerticesE11SkBlendModeRK7SkPaint
_ZN8SkCanvas12internalSaveEv
_ZN8SkCanvas12onClipRegionERK8SkRegion8SkClipOp
_ZN8SkCanvas12onClipShaderE5sk_spI8SkShaderE8SkClipOp
_ZN8SkCanvas12onDrawAtlas2EPK7SkImagePK9SkRSXformPK6SkRectPKji11SkBlendModeRK17SkSamplingOptionsS8_PK7SkPaint
_ZN8SkCanvas12onDrawBehindERK7SkPaint
_ZN8SkCanvas12onDrawDRRectERK7SkRRectS2_RK7SkPaint
_ZN8SkCanvas12onDrawImage2EPK7SkImageffRK17SkSamplingOptionsPK7SkPaint
_ZN8SkCanvas12onDrawPointsENS_9PointModeEmPK7SkPointRK7SkPaint
_ZN8SkCanvas12onDrawRegionERK8SkRegionRK7SkPaint
_ZN8SkCanvas12onNewSurfaceERK11SkImageInfoRK14SkSurfaceProps
_ZN8SkCanvas12onPeekPixelsEP8SkPixmap
_ZN8SkCanvas13ImageSetEntryC1E5sk_spIK7SkImageERK6SkRectS7_fj
_ZN8SkCanvas13ImageSetEntryC1E5sk_spIK7SkImageERK6SkRectS7_ifjb
_ZN8SkCanvas13ImageSetEntryC1ERKS0_
_ZN8SkCanvas13ImageSetEntryC1Ev
_ZN8SkCanvas13ImageSetEntryC2E5sk_spIK7SkImageERK6SkRectS7_fj
_ZN8SkCanvas13ImageSetEntryC2E5sk_spIK7SkImageERK6SkRectS7_ifjb
_ZN8SkCanvas13ImageSetEntryC2ERKS0_
_ZN8SkCanvas13ImageSetEntryC2Ev
_ZN8SkCanvas13ImageSetEntryD1Ev
_ZN8SkCanvas13ImageSetEntryD2Ev
_ZN8SkCanvas13ImageSetEntryaSERKS0_
_ZN8SkCanvas13drawImageNineEPK7SkImageRK7SkIRectRK6SkRect12SkFilterModePK7SkPaint
_ZN8SkCanvas13drawImageRectEPK7SkImageRK6SkRectRK17SkSamplingOptionsPK7SkPaint
_ZN8SkCanvas13drawImageRectEPK7SkImageRK6SkRectS5_RK17SkSamplingOptionsPK7SkPaintNS_17SrcRectConstraintE
_ZN8SkCanvas13drawRoundRectERK6SkRectffRK7SkPaint
_ZN8SkCanvas13onDrawPictureEPK9SkPicturePK8SkMatrixPK7SkPaint
_ZN8SkCanvas13predrawNotifyEPK6SkRectPK7SkPaint13SkEnumBitMaskINS_12PredrawFlagsEE
_ZN8SkCanvas13predrawNotifyEb
_ZN8SkCanvas14drawAnnotationERK6SkRectPKcP6SkData
_ZN8SkCanvas14drawSimpleTextEPKvm14SkTextEncodingffRK6SkFontRK7SkPaint
_ZN8SkCanvas14onDrawDrawableEP10SkDrawablePK8SkMatrix
_ZN8SkCanvas14onDrawTextBlobEPK10SkTextBlobffRK7SkPaint
_ZN8SkCanvas14restoreToCountEi
_ZN8SkCanvas15internalRestoreEv
_ZN8SkCanvas15onDrawShadowRecERK6SkPathRK15SkDrawShadowRec
_ZN8SkCanvas15saveLayerAlphafEPK6SkRectf
_ZN8SkCanvas16MakeRasterDirectERK11SkImageInfoPvmPK14SkSurfaceProps
_ZN8SkCanvas16drawImageLatticeEPK7SkImageRKNS_7LatticeERK6SkRect12SkFilterModePK7SkPaint
_ZN8SkCanvas16internalConcat44ERK5SkM44
_ZN8SkCanvas16onDrawAnnotationERK6SkRectPKcP6SkData
_ZN8SkCanvas16onDrawEdgeAAQuadERK6SkRectPK7SkPointNS_11QuadAAFlagsERK8SkRGBA4fIL11SkAlphaType3EE11SkBlendMode
_ZN8SkCanvas16onDrawImageRect2EPK7SkImageRK6SkRectS5_RK17SkSamplingOptionsPK7SkPaintNS_17SrcRectConstraintE
_ZN8SkCanvas17convertBlobToSlugERK10SkTextBlob7SkPointRK7SkPaint
_ZN8SkCanvas17drawGlyphsRSXformE6SkSpanIKtES0_IK9SkRSXformE7SkPointRK6SkFontRK7SkPaint
_ZN8SkCanvas17internalDrawPaintERK7SkPaint
_ZN8SkCanvas17internalSaveLayerERKNS_12SaveLayerRecENS_17SaveLayerStrategyEb
_ZN8SkCanvas17internalSetMatrixERK5SkM44
_ZN8SkCanvas18internalSaveBehindEPK6SkRect
_ZN8SkCanvas18onDrawGlyphRunListERKN6sktext12GlyphRunListERK7SkPaint
_ZN8SkCanvas19internalQuickRejectERK6SkRectRK7SkPaintPK8SkMatrix
_ZN8SkCanvas19onDrawImageLattice2EPK7SkImageRKNS_7LatticeERK6SkRect12SkFilterModePK7SkPaint
_ZN8SkCanvas19resetForNextPictureERK7SkIRect
_ZN8SkCanvas20accessTopLayerPixelsEP11SkImageInfoPmP8SkIPoint
_ZN8SkCanvas20checkForDeferredSaveEv
_ZN8SkCanvas20onDrawVerticesObjectEPK10SkVertices11SkBlendModeRK7SkPaint
_ZN8SkCanvas21onDrawEdgeAAImageSet2EPKNS_13ImageSetEntryEiPK7SkPointPK8SkMatrixRK17SkSamplingOptionsPK7SkPaintNS_17SrcRectConstraintE
_ZN8SkCanvas22onAccessTopLayerPixelsEP8SkPixmap
_ZN8SkCanvas23attemptBlurredRRectDrawERK7SkRRectPK20SkBlurMaskFilterImplRK7SkPaint13SkEnumBitMaskINS_12PredrawFlagsEE
_ZN8SkCanvas23drawClippedToSaveBehindERK7SkPaint
_ZN8SkCanvas23private_draw_shadow_recERK6SkPathRK15SkDrawShadowRec
_ZN8SkCanvas26internal_private_resetClipEv
_ZN8SkCanvas27experimental_DrawEdgeAAQuadERK6SkRectPK7SkPointNS_11QuadAAFlagsERK8SkRGBA4fIL11SkAlphaType3EE11SkBlendMode
_ZN8SkCanvas27onConvertGlyphRunListToSlugERKN6sktext12GlyphRunListERK7SkPaint
_ZN8SkCanvas28internalDrawDeviceWithFilterEP8SkDeviceS1_6SkSpanI5sk_spI13SkImageFilterEERK7SkPaintNS_26DeviceCompatibleWithFilterERK11SkColorInfof10SkTileModeb
_ZN8SkCanvas28only_axis_aligned_saveBehindEPK6SkRect
_ZN8SkCanvas29temporary_internal_getRgnClipEP8SkRegion
_ZN8SkCanvas31experimental_DrawEdgeAAImageSetEPKNS_13ImageSetEntryEiPK7SkPointPK8SkMatrixRK17SkSamplingOptionsPK7SkPaintNS_17SrcRectConstraintE
_ZN8SkCanvas41androidFramework_setDeviceClipRestrictionERK7SkIRect
_ZN8SkCanvas4initE5sk_spI8SkDeviceE
_ZN8SkCanvas4saveEv
_ZN8SkCanvas4skewEff
_ZN8SkCanvas5LayerC1E5sk_spI8SkDeviceE6SkSpanIS1_I13SkImageFilterEERK7SkPaintbb
_ZN8SkCanvas5LayerC2E5sk_spI8SkDeviceE6SkSpanIS1_I13SkImageFilterEERK7SkPaintbb
_ZN8SkCanvas5MCRec5resetEP8SkDevice
_ZN8SkCanvas5MCRec8newLayerE5sk_spI8SkDeviceE6SkSpanIS1_I13SkImageFilterEERK7SkPaintbb
_ZN8SkCanvas5MCRecC1EP8SkDevice
_ZN8SkCanvas5MCRecC1EPKS0_
_ZN8SkCanvas5MCRecC2EP8SkDevice
_ZN8SkCanvas5MCRecC2EPKS0_
_ZN8SkCanvas5MCRecD1Ev
_ZN8SkCanvas5MCRecD2Ev
_ZN8SkCanvas5scaleEff
_ZN8SkCanvas6concatERK5SkM44
_ZN8SkCanvas6concatERK8SkMatrix
_ZN8SkCanvas6doSaveEv
_ZN8SkCanvas6rotateEf
_ZN8SkCanvas6rotateEfff
_ZN8SkCanvas7drawArcERK6SkRectffbRK7SkPaint
_ZN8SkCanvas7restoreEv
_ZN8SkCanvas8clipPathERK6SkPath8SkClipOpb
_ZN8SkCanvas8clipRectERK6SkRect8SkClipOpb
_ZN8SkCanvas8drawLineEffffRK7SkPaint
_ZN8SkCanvas8drawMeshERK6SkMesh5sk_spI9SkBlenderERK7SkPaint
_ZN8SkCanvas8drawOvalERK6SkRectRK7SkPaint
_ZN8SkCanvas8drawPathERK6SkPathRK7SkPaint
_ZN8SkCanvas8drawRectERK6SkRectRK7SkPaint
_ZN8SkCanvas8drawSlugEPKN6sktext3gpu4SlugERK7SkPaint
_ZN8SkCanvas9BackImageC1E5sk_spI14SkSpecialImageE8SkIPoint
_ZN8SkCanvas9BackImageC1EOS0_
_ZN8SkCanvas9BackImageC1ERKS0_
_ZN8SkCanvas9BackImageC2E5sk_spI14SkSpecialImageE8SkIPoint
_ZN8SkCanvas9BackImageC2EOS0_
_ZN8SkCanvas9BackImageC2ERKS0_
_ZN8SkCanvas9BackImageD1Ev
_ZN8SkCanvas9BackImageD2Ev
_ZN8SkCanvas9BackImageaSERKS0_
_ZN8SkCanvas9clipRRectERK7SkRRect8SkClipOpb
_ZN8SkCanvas9drawAtlasEPK7SkImage6SkSpanIK9SkRSXformES3_IK6SkRectES3_IKjE11SkBlendModeRK17SkSamplingOptionsPS8_PK7SkPaint
_ZN8SkCanvas9drawColorERK8SkRGBA4fIL11SkAlphaType3EE11SkBlendMode
_ZN8SkCanvas9drawImageEPK7SkImageffRK17SkSamplingOptionsPK7SkPaint
_ZN8SkCanvas9drawPaintERK7SkPaint
_ZN8SkCanvas9drawPatchEPK7SkPointPKjS2_11SkBlendModeRK7SkPaint
_ZN8SkCanvas9drawPointEffRK7SkPaint
_ZN8SkCanvas9drawRRectERK7SkRRectRK7SkPaint
_ZN8SkCanvas9onDiscardEv
_ZN8SkCanvas9onDrawArcERK6SkRectffbRK7SkPaint
_ZN8SkCanvas9saveLayerEPK6SkRectPK7SkPaint
_ZN8SkCanvas9saveLayerERKNS_12SaveLayerRecE
_ZN8SkCanvas9setMatrixERK5SkM44
_ZN8SkCanvas9setMatrixERK8SkMatrix
_ZN8SkCanvas9translateEff
_ZN8SkCanvasC1E5sk_spI8SkDeviceE
_ZN8SkCanvasC1ERK7SkIRect
_ZN8SkCanvasC1ERK8SkBitmap
_ZN8SkCanvasC1ERK8SkBitmapRK14SkSurfaceProps
_ZN8SkCanvasC1ERK8SkBitmapSt10unique_ptrI23SkRasterHandleAllocatorSt14default_deleteIS4_EEPvPK14SkSurfaceProps
_ZN8SkCanvasC1EiiPK14SkSurfaceProps
_ZN8SkCanvasC1Ev
_ZN8SkCanvasC2E5sk_spI8SkDeviceE
_ZN8SkCanvasC2ERK7SkIRect
_ZN8SkCanvasC2ERK8SkBitmap
_ZN8SkCanvasC2ERK8SkBitmapRK14SkSurfaceProps
_ZN8SkCanvasC2ERK8SkBitmapSt10unique_ptrI23SkRasterHandleAllocatorSt14default_deleteIS4_EEPvPK14SkSurfaceProps
_ZN8SkCanvasC2EiiPK14SkSurfaceProps
_ZN8SkCanvasC2Ev
_ZN8SkCanvasD0Ev
_ZN8SkCanvasD1Ev
_ZN8SkCanvasD2Ev
_ZN8SkCodecs13DeferredImageESt10unique_ptrI7SkCodecSt14default_deleteIS1_EESt8optionalI11SkAlphaTypeE
_ZN8SkCodecs8RegisterENS_7DecoderE
_ZN8SkImages10GetContextEPK7SkImage
_ZN8SkImages14MakeWithFilterE5sk_spI7SkImageEPK13SkImageFilterRK7SkIRectS8_PS6_P8SkIPoint
_ZN8SkImages14MakeWithFilterEP18GrRecordingContext5sk_spI7SkImageEPK13SkImageFilterRK7SkIRectSA_PS8_P8SkIPoint
_ZN8SkImages14RasterFromDataERK11SkImageInfo5sk_spI6SkDataEm
_ZN8SkImages16AdoptTextureFromEP18GrRecordingContextRK16GrBackendTexture15GrSurfaceOrigin11SkColorType
_ZN8SkImages16AdoptTextureFromEP18GrRecordingContextRK16GrBackendTexture15GrSurfaceOrigin11SkColorType11SkAlphaType
_ZN8SkImages16AdoptTextureFromEP18GrRecordingContextRK16GrBackendTexture15GrSurfaceOrigin11SkColorType11SkAlphaType5sk_spI12SkColorSpaceE
_ZN8SkImages16RasterFromBitmapERK8SkBitmap
_ZN8SkImages16RasterFromPixmapERK8SkPixmapPFvPKvPvES5_
_ZN8SkImages16TextureFromImageEP15GrDirectContextPK7SkImageN5skgpu9MipmappedENS5_8BudgetedE
_ZN8SkImages17BorrowTextureFromEP18GrRecordingContextRK16GrBackendTexture15GrSurfaceOrigin11SkColorType11SkAlphaType5sk_spI12SkColorSpaceEPFvPvESB_
_ZN8SkImages17SubsetTextureFromEP15GrDirectContextPK7SkImageRK7SkIRect
_ZN8SkImages18PromiseTextureFromE5sk_spI24GrContextThreadSafeProxyERK15GrBackendFormat7SkISizeN5skgpu9MipmappedE15GrSurfaceOrigin11SkColorType11SkAlphaTypeS0_I12SkColorSpaceEPFS0_I21GrPromiseImageTextureEPvEPFvSG_ESG_
_ZN8SkImages19DeferredFromPictureE5sk_spI9SkPictureERK7SkISizePK8SkMatrixPK7SkPaintNS_8BitDepthES0_I12SkColorSpaceE
_ZN8SkImages19DeferredFromPictureE5sk_spI9SkPictureERK7SkISizePK8SkMatrixPK7SkPaintNS_8BitDepthES0_I12SkColorSpaceE14SkSurfaceProps
_ZN8SkImages20RasterFromPixmapCopyERK8SkPixmap
_ZN8SkImages21DeferredFromGeneratorESt10unique_ptrI16SkImageGeneratorSt14default_deleteIS1_EE
_ZN8SkImages22PromiseTextureFromYUVAE5sk_spI24GrContextThreadSafeProxyERK24GrYUVABackendTextureInfoS0_I12SkColorSpaceEPFS0_I21GrPromiseImageTextureEPvEPFvSA_EPSA_
_ZN8SkImages22TextureFromYUVAPixmapsEP18GrRecordingContextRK13SkYUVAPixmapsN5skgpu9MipmappedEb
_ZN8SkImages22TextureFromYUVAPixmapsEP18GrRecordingContextRK13SkYUVAPixmapsN5skgpu9MipmappedEb5sk_spI12SkColorSpaceE
_ZN8SkImages23DeferredFromEncodedDataE5sk_spIK6SkDataESt8optionalI11SkAlphaTypeE
_ZN8SkImages23TextureFromYUVATexturesEP18GrRecordingContextRK21GrYUVABackendTextures
_ZN8SkImages23TextureFromYUVATexturesEP18GrRecordingContextRK21GrYUVABackendTextures5sk_spI12SkColorSpaceEPFvPvES8_
_ZN8SkImages24PinnableRasterFromBitmapERK8SkBitmap
_ZN8SkImages26GetBackendTextureFromImageEPK7SkImageP16GrBackendTexturebP15GrSurfaceOrigin
_ZN8SkImages27MakeBackendTextureFromImageEP15GrDirectContext5sk_spI7SkImageEP16GrBackendTexturePSt8functionIFvS5_EE
_ZN8SkImages28TextureFromCompressedTextureEP18GrRecordingContextRK16GrBackendTexture15GrSurfaceOrigin11SkAlphaType5sk_spI12SkColorSpaceEPFvPvESA_
_ZN8SkImages29CrossContextTextureFromPixmapEP15GrDirectContextRK8SkPixmapbb
_ZN8SkImages31RasterFromCompressedTextureDataE5sk_spI6SkDataEii24SkTextureCompressionType
_ZN8SkImages32TextureFromCompressedTextureDataEP15GrDirectContext5sk_spI6SkDataEii24SkTextureCompressionTypeN5skgpu9MipmappedENS6_9ProtectedE
_ZN8SkMatrix10ComputeInvEPfPKfdb
_ZN8SkMatrix10PolyToPolyE6SkSpanIK7SkPointES3_
_ZN8SkMatrix10postConcatERKS_
_ZN8SkMatrix10postRotateEf
_ZN8SkMatrix10postRotateEfff
_ZN8SkMatrix10setRSXformERK9SkRSXform
_ZN8SkMatrix11Affine_vptsERKS_P7SkPointPKS2_i
_ZN8SkMatrix12Identity_ptsERKS_P7SkPointPKS2_i
_ZN8SkMatrix12gMapPtsProcsE
_ZN8SkMatrix12preTranslateEff
_ZN8SkMatrix12setTranslateEff
_ZN8SkMatrix13InvalidMatrixEv
_ZN8SkMatrix13postTranslateEff
_ZN8SkMatrix14ScaleTranslateEffff
_ZN8SkMatrix14readFromMemoryEPKvm
_ZN8SkMatrix17SetAffineIdentityEPf
_ZN8SkMatrix1IEv
_ZN8SkMatrix22doNormalizePerspectiveEv
_ZN8SkMatrix4set9EPKf
_ZN8SkMatrix5resetEv
_ZN8SkMatrix7preSkewEff
_ZN8SkMatrix7preSkewEffff
_ZN8SkMatrix7setSkewEff
_ZN8SkMatrix7setSkewEffff
_ZN8SkMatrix8postIDivEii
_ZN8SkMatrix8postSkewEff
_ZN8SkMatrix8postSkewEffff
_ZN8SkMatrix8preScaleEff
_ZN8SkMatrix8preScaleEffff
_ZN8SkMatrix8setScaleEff
_ZN8SkMatrix8setScaleEffff
_ZN8SkMatrix9Persp_ptsERKS_P7SkPointPKS2_i
_ZN8SkMatrix9Poly2ProcEPK7SkPointPS_
_ZN8SkMatrix9Poly3ProcEPK7SkPointPS_
_ZN8SkMatrix9Poly4ProcEPK7SkPointPS_
_ZN8SkMatrix9Rect2RectERK6SkRectS2_NS_10ScaleToFitE
_ZN8SkMatrix9Scale_ptsERKS_P7SkPointPKS2_i
_ZN8SkMatrix9Trans_ptsERKS_P7SkPointPKS2_i
_ZN8SkMatrix9postScaleEff
_ZN8SkMatrix9postScaleEffff
_ZN8SkMatrix9preConcatERKS_
_ZN8SkMatrix9preRotateEf
_ZN8SkMatrix9preRotateEfff
_ZN8SkMatrix9setAffineEPKf
_ZN8SkMatrix9setConcatERKS_S1_
_ZN8SkMatrix9setRotateEf
_ZN8SkMatrix9setRotateEfff
_ZN8SkMatrix9setSinCosEff
_ZN8SkMatrix9setSinCosEffff
_ZN8SkMeshes15CopyIndexBufferEP15GrDirectContext5sk_spIN6SkMesh11IndexBufferEE
_ZN8SkMeshes15CopyIndexBufferERK5sk_spIN6SkMesh11IndexBufferEE
_ZN8SkMeshes15MakeIndexBufferEP15GrDirectContextPKvm
_ZN8SkMeshes15MakeIndexBufferEPKvm
_ZN8SkMeshes16CopyVertexBufferEP15GrDirectContext5sk_spIN6SkMesh12VertexBufferEE
_ZN8SkMeshes16CopyVertexBufferERK5sk_spIN6SkMesh12VertexBufferEE
_ZN8SkMeshes16MakeVertexBufferEP15GrDirectContextPKvm
_ZN8SkMeshes16MakeVertexBufferEPKvm
_ZN8SkOSFile4Iter4nextEP8SkStringb
_ZN8SkOSFile4Iter5resetEPKcS2_
_ZN8SkOSFile4IterC1EPKcS2_
_ZN8SkOSFile4IterC1Ev
_ZN8SkOSFile4IterC2EPKcS2_
_ZN8SkOSFile4IterC2Ev
_ZN8SkOSFile4IterD1Ev
_ZN8SkOSFile4IterD2Ev
_ZN8SkPixmap13setColorSpaceE5sk_spI12SkColorSpaceE
_ZN8SkPixmap5resetERK11SkImageInfoPKvm
_ZN8SkPixmap5resetERK6SkMask
_ZN8SkPixmap5resetEv
_ZN8SkPoint36LengthEfff
_ZN8SkPoint39normalizeEv
_ZN8SkRGBA4fIL11SkAlphaType3EE14FromBytes_RGBAEj
_ZN8SkRGBA4fIL11SkAlphaType3EE9FromColorEj
_ZN8SkRegion10Cliperator4nextEv
_ZN8SkRegion10CliperatorC1ERKS_RK7SkIRect
_ZN8SkRegion10CliperatorC2ERKS_RK7SkIRect
_ZN8SkRegion10Spanerator4nextEPiS1_
_ZN8SkRegion10SpaneratorC1ERKS_iii
_ZN8SkRegion10SpaneratorC2ERKS_iii
_ZN8SkRegion12RunsAreARectEPKiiP7SkIRect
_ZN8SkRegion12allocateRunsERKNS_7RunHeadE
_ZN8SkRegion12allocateRunsEi
_ZN8SkRegion12allocateRunsEiii
_ZN8SkRegion13BuildRectRunsERK7SkIRectPi
_ZN8SkRegion14readFromMemoryEPKvm
_ZN8SkRegion2opERK7SkIRectRKS_NS_2OpE
_ZN8SkRegion2opERKS_RK7SkIRectNS_2OpE
_ZN8SkRegion2opERKS_S1_NS_2OpE
_ZN8SkRegion4OperERKS_S1_NS_2OpEPS_
_ZN8SkRegion4swapERS_
_ZN8SkRegion7setPathERK6SkPathRKS_
_ZN8SkRegion7setRectERK7SkIRect
_ZN8SkRegion7setRunsEPii
_ZN8SkRegion8Iterator4nextEv
_ZN8SkRegion8Iterator5resetERKS_
_ZN8SkRegion8Iterator6rewindEv
_ZN8SkRegion8IteratorC1ERKS_
_ZN8SkRegion8IteratorC2ERKS_
_ZN8SkRegion8freeRunsEv
_ZN8SkRegion8setEmptyEv
_ZN8SkRegion8setRectsEPK7SkIRecti
_ZN8SkRegion9setRegionERKS_
_ZN8SkRegionC1ERK7SkIRect
_ZN8SkRegionC1ERKS_
_ZN8SkRegionC1Ev
_ZN8SkRegionC2ERK7SkIRect
_ZN8SkRegionC2ERKS_
_ZN8SkRegionC2Ev
_ZN8SkRegionD1Ev
_ZN8SkRegionD2Ev
_ZN8SkRegionaSERKS_
_ZN8SkStream10readScalarEPf
_ZN8SkStream12MakeFromFileEPKc
_ZN8SkStream14readPackedUIntEPm
_ZN8SkStream6readS8EPa
_ZN8SkStream7readS16EPs
_ZN8SkStream7readS32EPi
_ZN8SkStream7readS64EPl
_ZN8SkString11printVAListEPKcP13__va_list_tag
_ZN8SkString12appendVAListEPKcP13__va_list_tag
_ZN8SkString12insertScalarEmf
_ZN8SkString13insertUnicharEmi
_ZN8SkString13prependVAListEPKcP13__va_list_tag
_ZN8SkString3Rec4MakeEPKcm
_ZN8SkString3setEPKc
_ZN8SkString3setEPKcm
_ZN8SkString4dataEv
_ZN8SkString4swapERS_
_ZN8SkString5resetEv
_ZN8SkString6insertEmPKc
_ZN8SkString6insertEmPKcm
_ZN8SkString6printfEPKcz
_ZN8SkString6removeEmm
_ZN8SkString6resizeEm
_ZN8SkString7appendfEPKcz
_ZN8SkString8prependfEPKcz
_ZN8SkString9gEmptyRecE
_ZN8SkString9insertHexEmji
_ZN8SkString9insertS32Emi
_ZN8SkString9insertS64Emli
_ZN8SkString9insertU32Emj
_ZN8SkString9insertU64Emmi
_ZN8SkStringC1EOS_
_ZN8SkStringC1EPKc
_ZN8SkStringC1EPKcm
_ZN8SkStringC1ERKNSt7__cxx1112basic_stringIcSt11char_traitsIcESaIcEEE
_ZN8SkStringC1ERKS_
_ZN8SkStringC1ESt17basic_string_viewIcSt11char_traitsIcEE
_ZN8SkStringC1Em
_ZN8SkStringC1Ev
_ZN8SkStringC2EOS_
_ZN8SkStringC2EPKc
_ZN8SkStringC2EPKcm
_ZN8SkStringC2ERKNSt7__cxx1112basic_stringIcSt11char_traitsIcESaIcEEE
_ZN8SkStringC2ERKS_
_ZN8SkStringC2ESt17basic_string_viewIcSt11char_traitsIcEE
_ZN8SkStringC2Em
_ZN8SkStringC2Ev
_ZN8SkStringD1Ev
_ZN8SkStringD2Ev
_ZN8SkStringaSEOS_
_ZN8SkStringaSEPKc
_ZN8SkStringaSERKS_
_ZN9SkBlender4ModeE11SkBlendMode
_ZN9SkEncoder10encodeRowsEi
_ZN9SkFontMgr8RefEmptyEv
_ZN9SkPathRef11CreateEmptyEv
_ZN9SkPathRef11growForVerbE10SkPathVerbf
_ZN9SkPathRef18growForVerbsInPathERKS_
_ZN9SkPathRef19growForRepeatedVerbE10SkPathVerbiPPf
_ZN9SkPathRef21CreateTransformedCopyEP5sk_spIS_ERKS_RK8SkMatrix
_ZN9SkPathRef22addGenIDChangeListenerE5sk_spI18SkIDChangeListenerE
_ZN9SkPathRef24callGenIDChangeListenersEv
_ZN9SkPathRef24genIDChangeListenerCountEv
_ZN9SkPathRef4copyERKS_iii
_ZN9SkPathRef5resetEv
_ZN9SkPathRef6EditorC1EP5sk_spIS_Eiii
_ZN9SkPathRef6EditorC2EP5sk_spIS_Eiii
_ZN9SkPathRef6RewindEP5sk_spIS_E
_ZN9SkPathRefD1Ev
_ZN9SkPathRefD2Ev
_ZN9SkPicture11BufferIsSKPEP12SkReadBufferP10SkPictInfo
_ZN9SkPicture11ForwardportERK10SkPictInfoPK13SkPictureDataP12SkReadBuffer
_ZN9SkPicture11StreamIsSKPEP8SkStreamP10SkPictInfo
_ZN9SkPicture12MakeFromDataEPK6SkDataPK15SkDeserialProcs
_ZN9SkPicture12MakeFromDataEPKvmPK15SkDeserialProcs
_ZN9SkPicture14MakeFromStreamEP8SkStreamPK15SkDeserialProcs
_ZN9SkPicture15IsValidPictInfoERK10SkPictInfo
_ZN9SkPicture15MakePlaceholderE6SkRect
_ZN9SkPicture18MakeFromStreamPrivEP8SkStreamPK15SkDeserialProcsP18SkTypefacePlaybacki
_ZN9SkPictureC2Ev
_ZN9SkPictureD0Ev
_ZN9SkPictureD1Ev
_ZN9SkPictureD2Ev
_ZN9SkShaders10CoordClampE5sk_spI8SkShaderERK6SkRect
_ZN9SkShaders14MakeTurbulenceEffifPK7SkISize
_ZN9SkShaders16MakeFractalNoiseEffifPK7SkISize
_ZN9SkShaders5BlendE11SkBlendMode5sk_spI8SkShaderES3_
_ZN9SkShaders5BlendE5sk_spI9SkBlenderES0_I8SkShaderES4_
_ZN9SkShaders5ColorERK8SkRGBA4fIL11SkAlphaType3EE5sk_spI12SkColorSpaceE
_ZN9SkShaders5ColorEj
_ZN9SkShaders5EmptyEv
_ZN9SkShaders5ImageE5sk_spI7SkImageE10SkTileModeS3_RK17SkSamplingOptionsPK8SkMatrix
_ZN9SkShaders8RawImageE5sk_spI7SkImageE10SkTileModeS3_RK17SkSamplingOptionsPK8SkMatrix
_ZN9SkSurface10peekPixelsEP8SkPixmap
_ZN9SkSurface10readPixelsERK11SkImageInfoPvmii
_ZN9SkSurface10readPixelsERK8SkBitmapii
_ZN9SkSurface10readPixelsERK8SkPixmapii
_ZN9SkSurface11makeSurfaceERK11SkImageInfo
_ZN9SkSurface11makeSurfaceEii
_ZN9SkSurface11writePixelsERK8SkBitmapii
_ZN9SkSurface11writePixelsERK8SkPixmapii
_ZN9SkSurface12capabilitiesEv
_ZN9SkSurface12generationIDEv
_ZN9SkSurface17makeImageSnapshotERK7SkIRect
_ZN9SkSurface17makeImageSnapshotEv
_ZN9SkSurface18makeTemporaryImageEv
_ZN9SkSurface23notifyContentWillChangeENS_17ContentChangeModeE
_ZN9SkSurface25asyncRescaleAndReadPixelsERK11SkImageInfoRK7SkIRectN7SkImage12RescaleGammaENS6_11RescaleModeEPFvPvSt10unique_ptrIKNS6_15AsyncReadResultESt14default_deleteISC_EEES9_
_ZN9SkSurface31asyncRescaleAndReadPixelsYUV420E15SkYUVColorSpace5sk_spI12SkColorSpaceERK7SkIRectRK7SkISizeN7SkImage12RescaleGammaENSA_11RescaleModeEPFvPvSt10unique_ptrIKNSA_15AsyncReadResultESt14default_deleteISG_EEESD_
_ZN9SkSurface32asyncRescaleAndReadPixelsYUVA420E15SkYUVColorSpace5sk_spI12SkColorSpaceERK7SkIRectRK7SkISizeN7SkImage12RescaleGammaENSA_11RescaleModeEPFvPvSt10unique_ptrIKNSA_15AsyncReadResultESt14default_deleteISG_EEESD_
_ZN9SkSurface4drawEP8SkCanvasffRK17SkSamplingOptionsPK7SkPaint
_ZN9SkSurface4waitEiPK18GrBackendSemaphoreb
_ZN9SkSurface9getCanvasEv
_ZN9SkSurfaceC2ERK11SkImageInfoPK14SkSurfaceProps
_ZN9SkSurfaceC2EiiPK14SkSurfaceProps
_ZN9SkWStream11writeScalarEf
_ZN9SkWStream11writeStreamEP8SkStreamm
_ZN9SkWStream14writeDecAsTextEi
_ZN9SkWStream14writeHexAsTextEji
_ZN9SkWStream15writePackedUIntEm
_ZN9SkWStream16SizeOfPackedUIntEm
_ZN9SkWStream17writeBigDecAsTextEli
_ZN9SkWStream17writeScalarAsTextEf
_ZN9SkWStream5flushEv
_ZN9SkWStreamD0Ev
_ZN9SkWStreamD1Ev
_ZN9SkWStreamD2Ev
_ZNK10SkCubicMap12computeFromTEf
_ZNK10SkCubicMap13computeYFromXEf
_ZNK10SkPixelRef15getGenerationIDEv
_ZNK10SkTextBlob13getInterceptsEPKfPfPK7SkPaint
_ZNK10SkTextBlob9RunRecord11textSizePtrEv
_ZNK10SkTextBlob9RunRecord8validateEPKh
_ZNK10SkTextBlob9serializeERK13SkSerialProcs
_ZNK10SkTextBlob9serializeERK13SkSerialProcsPvm
_ZNK10SkTypeface10openStreamEPi
_ZNK10SkTypeface11countGlyphsEv
_ZNK10SkTypeface11countTablesEv
_ZNK10SkTypeface12getTableDataEjmmPv
_ZNK10SkTypeface12getTableSizeEj
_ZNK10SkTypeface12isFixedPitchEv
_ZNK10SkTypeface12textToGlyphsEPKvm14SkTextEncoding6SkSpanItE
_ZNK10SkTypeface13copyTableDataEj
_ZNK10SkTypeface13getFamilyNameEP8SkString
_ZNK10SkTypeface13getUnitsPerEmEv
_ZNK10SkTypeface13readTableTagsE6SkSpanIjE
_ZNK10SkTypeface14onGetFontStyleEv
_ZNK10SkTypeface14unicharToGlyphEi
_ZNK10SkTypeface15getResourceNameEP8SkString
_ZNK10SkTypeface15onComputeBoundsEP6SkRect
_ZNK10SkTypeface15onCopyTableDataEj
_ZNK10SkTypeface15onGetFixedPitchEv
_ZNK10SkTypeface16unicharsToGlyphsE6SkSpanIKiES0_ItE
_ZNK10SkTypeface17getPostScriptNameEP8SkString
_ZNK10SkTypeface17onGetResourceNameEP8SkString
_ZNK10SkTypeface18getAdvancedMetricsEv
_ZNK10SkTypeface18openExistingStreamEPi
_ZNK10SkTypeface19createScalerContextERK22SkScalerContextEffectsPK12SkDescriptor
_ZNK10SkTypeface20getGlyphToUnicodeMapE6SkSpanIiE
_ZNK10SkTypeface20onOpenExistingStreamEPi
_ZNK10SkTypeface24createFamilyNameIteratorEv
_ZNK10SkTypeface25getKerningPairAdjustmentsE6SkSpanIKtES0_IiE
_ZNK10SkTypeface26getVariationDesignPositionE6SkSpanIN15SkFontArguments17VariationPosition10CoordinateEE
_ZNK10SkTypeface26glyphMaskNeedsCurrentColorEv
_ZNK10SkTypeface27onGetKerningPairAdjustmentsE6SkSpanIKtES0_IiE
_ZNK10SkTypeface28getVariationDesignParametersE6SkSpanIN16SkFontParameters9Variation4AxisEE
_ZNK10SkTypeface36onCreateScalerContextAsProxyTypefaceERK22SkScalerContextEffectsPK12SkDescriptorPS_
_ZNK10SkTypeface6isBoldEv
_ZNK10SkTypeface8isItalicEv
_ZNK10SkTypeface9fontStyleEv
_ZNK10SkTypeface9getBoundsEv
_ZNK10SkTypeface9makeCloneERK15SkFontArguments
_ZNK10SkTypeface9serializeENS_17SerializeBehaviorE
_ZNK10SkTypeface9serializeEP9SkWStreamNS_17SerializeBehaviorE
_ZNK10SkVertices15approximateSizeEv
_ZNK10SkVertices8getSizesEv
_ZNK10SkYUVAInfo14makeDimensionsE7SkISize
_ZNK10SkYUVAInfo15makeSubsamplingENS_11SubsamplingE
_ZNK10SkYUVAInfo15toYUVALocationsEPKj
_ZNK10SkYUVAInfo17computeTotalBytesEPKmPm
_ZNK10SkYUVAInfoeqERKS_
_ZNK11SkColorInfo10colorSpaceEv
_ZNK11SkColorInfo13bytesPerPixelEv
_ZNK11SkColorInfo13makeAlphaTypeE11SkAlphaType
_ZNK11SkColorInfo13makeColorTypeE11SkColorType
_ZNK11SkColorInfo13refColorSpaceEv
_ZNK11SkColorInfo13shiftPerPixelEv
_ZNK11SkColorInfo14makeColorSpaceE5sk_spI12SkColorSpaceE
_ZNK11SkColorInfo16gammaCloseToSRGBEv
_ZNK11SkColorInfoeqERKS_
_ZNK11SkColorInfoneERKS_
_ZNK11SkDataTable2atEiPm
_ZNK11SkDataTable6atSizeEi
_ZNK11SkImageInfo10colorSpaceEv
_ZNK11SkImageInfo13computeOffsetEiim
_ZNK11SkImageInfo13refColorSpaceEv
_ZNK11SkImageInfo14makeColorSpaceE5sk_spI12SkColorSpaceE
_ZNK11SkImageInfo15computeByteSizeEm
_ZNK11SkStrokeRec11applyToPathEP13SkPathBuilderRK6SkPath
_ZNK11SkStrokeRec12applyToPaintEP7SkPaint
_ZNK11SkStrokeRec18getInflationRadiusEv
_ZNK11SkStrokeRec8getStyleEv
_ZNK12SkColorSpace10transferFnEP22skcms_TransferFunction
_ZNK12SkColorSpace10transferFnEPf
_ZNK12SkColorSpace13gammaIsLinearEv
_ZNK12SkColorSpace13invTransferFnEP22skcms_TransferFunction
_ZNK12SkColorSpace13makeColorSpinEv
_ZNK12SkColorSpace13makeSRGBGammaEv
_ZNK12SkColorSpace13writeToMemoryEPv
_ZNK12SkColorSpace15makeLinearGammaEv
_ZNK12SkColorSpace16gammaCloseToSRGBEv
_ZNK12SkColorSpace16gamutTransformToEPKS_P15skcms_Matrix3x3
_ZNK12SkColorSpace20computeLazyDstFieldsEv
_ZNK12SkColorSpace21isNumericalTransferFnEP22skcms_TransferFunction
_ZNK12SkColorSpace6isSRGBEv
_ZNK12SkColorSpace8toXYZD50EP15skcms_Matrix3x3
_ZNK12SkColorSpace9serializeEv
_ZNK12SkColorSpace9toProfileEP16skcms_ICCProfile
_ZNK12SkColorTable7flattenER13SkWriteBuffer
_ZNK12SkFILEStream11getPositionEv
_ZNK12SkFILEStream11onDuplicateEv
_ZNK12SkFILEStream6onForkEv
_ZNK12SkFILEStream7isAtEndEv
_ZNK12SkFILEStream9getLengthEv
_ZNK12SkPathEffect10filterPathEP13SkPathBuilderRK6SkPathP11SkStrokeRec
_ZNK12SkPathEffect10filterPathEP13SkPathBuilderRK6SkPathP11SkStrokeRecPK6SkRectRK8SkMatrix
_ZNK12SkPathEffect10filterPathEP6SkPathRKS0_P11SkStrokeRecPK6SkRect
_ZNK12SkPathEffect10filterPathEP6SkPathRKS0_P11SkStrokeRecPK6SkRectRK8SkMatrix
_ZNK12SkPathEffect8needsCTMEv
_ZNK13SkColorFilter12asAColorModeEPjP11SkBlendMode
_ZNK13SkColorFilter12makeComposedE5sk_spIS_E
_ZNK13SkColorFilter13filterColor4fERK8SkRGBA4fIL11SkAlphaType3EEP12SkColorSpaceS6_
_ZNK13SkColorFilter14asAColorMatrixEPf
_ZNK13SkColorFilter16isAlphaUnchangedEv
_ZNK13SkColorFilter25makeWithWorkingColorSpaceE5sk_spI12SkColorSpaceE
_ZNK13SkFILEWStream12bytesWrittenEv
_ZNK13SkFlattenable9serializeEPK13SkSerialProcs
_ZNK13SkFlattenable9serializeEPvmPK13SkSerialProcs
_ZNK13SkImageFilter11countInputsEv
_ZNK13SkImageFilter12filterBoundsERK7SkIRectRK8SkMatrixNS_12MapDirectionEPS1_
_ZNK13SkImageFilter14asAColorFilterEPP13SkColorFilter
_ZNK13SkImageFilter17computeFastBoundsERK6SkRect
_ZNK13SkImageFilter17isColorFilterNodeEPP13SkColorFilter
_ZNK13SkImageFilter19makeWithLocalMatrixERK8SkMatrix
_ZNK13SkImageFilter20canComputeFastBoundsEv
_ZNK13SkImageFilter8getInputEi
_ZNK13SkPathBuilder12dumpToStringENS_10DumpFormatE
_ZNK13SkPathBuilder12snapshotDataEv
_ZNK13SkPathBuilder18computeTightBoundsEv
_ZNK13SkPathBuilder22isZeroLengthSincePointEi
_ZNK13SkPathBuilder4dumpENS_10DumpFormatE
_ZNK13SkPathBuilder4iterEv
_ZNK13SkPathBuilder8containsE7SkPoint
_ZNK13SkPathBuilder8isFiniteEv
_ZNK13SkPathBuilder8snapshotEPK8SkMatrix
_ZNK13SkPathBuilder9getLastPtEv
_ZNK13SkPathBuildereqERKS_
_ZNK13SkYUVAPixmaps11pixmapsInfoEv
_ZNK13SkYUVAPixmaps15toYUVALocationsEv
_ZNK14GrContext_Base20defaultBackendFormatE11SkColorTypeN5skgpu10RenderableE
_ZNK14GrContext_Base23compressedBackendFormatE24SkTextureCompressionType
_ZNK14GrContext_Base33maxSurfaceSampleCountForColorTypeE11SkColorType
_ZNK14GrContext_Base7backendEv
_ZNK14SkAndroidCodec17computeSampleSizeEP7SkISize
_ZNK14SkAndroidCodec18getSupportedSubsetEP7SkIRect
_ZNK14SkAndroidCodec20getSampledDimensionsEi
_ZNK14SkAndroidCodec26getSampledSubsetDimensionsEiRK7SkIRect
_ZNK14SkMemoryStream11getPositionEv
_ZNK14SkMemoryStream11onDuplicateEv
_ZNK14SkMemoryStream4peekEPvm
_ZNK14SkMemoryStream6onForkEv
_ZNK14SkMemoryStream7isAtEndEv
_ZNK14SkMemoryStream9getLengthEv
_ZNK14SkRTreeFactoryclEv
_ZNK14SkStrikeClient19translateTypefaceIDEP16SkAutoDescriptor
_ZNK15GrBackendFormat11channelMaskEv
_ZNK15GrBackendFormat13makeTexture2DEv
_ZNK15GrBackendFormat15asMockColorTypeEv
_ZNK15GrBackendFormat19isMockStencilFormatEv
_ZNK15GrBackendFormat21asMockCompressionTypeEv
_ZNK15GrBackendFormat4descEv
_ZNK15GrBackendFormat5toStrEv
_ZNK15GrBackendFormateqERKS_
_ZNK15GrDirectContext17supportedGpuStatsEv
_ZNK15GrDirectContext20dumpMemoryStatisticsEP17SkTraceMemoryDump
_ZNK15GrDirectContext21getResourceCacheLimitEv
_ZNK15GrDirectContext21getResourceCacheUsageEPiPm
_ZNK15GrDirectContext22getResourceCacheLimitsEPiPm
_ZNK15GrDirectContext25hasNewVkPipelineCacheDataEv
_ZNK15GrDirectContext25supportsDistanceFieldTextEv
_ZNK15GrDirectContext30getResourceCachePurgeableBytesEv
_ZNK15GrDirectContext31canDetectNewVkPipelineCacheDataEv
_ZNK15SkAnimatedImage5Frame6copyToEPS0_
_ZNK15SkRuntimeEffect10makeShaderE5sk_spIK6SkDataE6SkSpanIKNS_8ChildPtrEEPK8SkMatrix
_ZNK15SkRuntimeEffect10makeShaderE5sk_spIK6SkDataEPS0_I8SkShaderEmPK8SkMatrix
_ZNK15SkRuntimeEffect11findUniformESt17basic_string_viewIcSt11char_traitsIcEE
_ZNK15SkRuntimeEffect11makeBlenderE5sk_spIK6SkDataE6SkSpanIKNS_8ChildPtrEE
_ZNK15SkRuntimeEffect11uniformSizeEv
_ZNK15SkRuntimeEffect12getRPProgramEPN4SkSL14DebugTracePrivE
_ZNK15SkRuntimeEffect15makeColorFilterE5sk_spIK6SkDataE
_ZNK15SkRuntimeEffect15makeColorFilterE5sk_spIK6SkDataE6SkSpanIKNS_8ChildPtrEE
_ZNK15SkRuntimeEffect15makeColorFilterE5sk_spIK6SkDataEPS0_I13SkColorFilterEm
_ZNK15SkRuntimeEffect6sourceB5cxx11Ev
_ZNK15SkRuntimeEffect7Uniform11sizeInBytesEv
_ZNK15SkRuntimeEffect8ChildPtr11colorFilterEv
_ZNK15SkRuntimeEffect8ChildPtr4typeEv
_ZNK15SkRuntimeEffect8ChildPtr6shaderEv
_ZNK15SkRuntimeEffect8ChildPtr7blenderEv
_ZNK15SkRuntimeEffect9findChildESt17basic_string_viewIcSt11char_traitsIcEE
_ZNK16GrBackendTexture11isProtectedEv
_ZNK16GrBackendTexture15getMutableStateEv
_ZNK16GrBackendTexture16getBackendFormatEv
_ZNK16GrBackendTexture18getMockTextureInfoEP17GrMockTextureInfo
_ZNK16SkContourMeasure10getSegmentEffP13SkPathBuilderb
_ZNK16SkContourMeasure10getSegmentEffP6SkPathb
_ZNK16SkContourMeasure17distanceToSegmentEfPf
_ZNK16SkContourMeasure19ForwardVerbIteratordeEv
_ZNK16SkContourMeasure7Segment10getScalarTEv
_ZNK16SkContourMeasure9getMatrixEfP8SkMatrixNS_11MatrixFlagsE
_ZNK16SkContourMeasure9getPosTanEfP7SkPointS1_
_ZNK16SkImageGenerator13queryYUVAInfoERKN16SkYUVAPixmapInfo18SupportedDataTypesEPS0_
_ZNK16SkOrderedFontMgr13onMatchFamilyEPKc
_ZNK16SkOrderedFontMgr14onMakeFromDataE5sk_spI6SkDataEi
_ZNK16SkOrderedFontMgr14onMakeFromFileEPKci
_ZNK16SkOrderedFontMgr15onCountFamiliesEv
_ZNK16SkOrderedFontMgr15onGetFamilyNameEiP8SkString
_ZNK16SkOrderedFontMgr16onCreateStyleSetEi
_ZNK16SkOrderedFontMgr18onMatchFamilyStyleEPKcRK11SkFontStyle
_ZNK16SkOrderedFontMgr20onLegacyMakeTypefaceEPKc11SkFontStyle
_ZNK16SkOrderedFontMgr20onMakeFromStreamArgsESt10unique_ptrI13SkStreamAssetSt14default_deleteIS1_EERK15SkFontArguments
_ZNK16SkOrderedFontMgr21onMakeFromStreamIndexESt10unique_ptrI13SkStreamAssetSt14default_deleteIS1_EEi
_ZNK16SkOrderedFontMgr27onMatchFamilyStyleCharacterEPKcRK11SkFontStylePS1_ii
_ZNK16SkYUVAPixmapInfo11isSupportedERKNS_18SupportedDataTypesE
_ZNK16SkYUVAPixmapInfo17computeTotalBytesEPm
_ZNK16SkYUVAPixmapInfo31initPixmapsFromSingleAllocationEPvP8SkPixmap
_ZNK16SkYUVAPixmapInfoeqERKS_
_ZNK17SkPictureRecorder13partialReplayEP8SkCanvas
_ZNK18GrRecordingContext14maxTextureSizeEv
_ZNK18GrRecordingContext14skCapabilitiesEv
_ZNK18GrRecordingContext19maxRenderTargetSizeEv
_ZNK18GrRecordingContext24supportsProtectedContentEv
_ZNK18GrRecordingContext25colorTypeSupportedAsImageE11SkColorType
_ZNK19SkMeshSpecification11findUniformESt17basic_string_viewIcSt11char_traitsIcEE
_ZNK19SkMeshSpecification11findVaryingESt17basic_string_viewIcSt11char_traitsIcEE
_ZNK19SkMeshSpecification11uniformSizeEv
_ZNK19SkMeshSpecification13findAttributeESt17basic_string_viewIcSt11char_traitsIcEE
_ZNK19SkMeshSpecification9findChildESt17basic_string_viewIcSt11char_traitsIcEE
_ZNK19SkPaintFilterCanvas10onGetPropsEP14SkSurfacePropsb
_ZNK19SkPaintFilterCanvas11onImageInfoEv
_ZNK20SkContainerAllocator15roundUpCapacityEl
_ZNK20SkContainerAllocator20growthFactorCapacityEid
_ZNK21GrBackendRenderTarget11isProtectedEv
_ZNK21GrBackendRenderTarget15getMutableStateEv
_ZNK21GrBackendRenderTarget16getBackendFormatEv
_ZNK21GrBackendRenderTarget23getMockRenderTargetInfoEP22GrMockRenderTargetInfo
_ZNK21GrDeferredDisplayList15ProgramIterator4doneEv
_ZNK21GrYUVABackendTextures15toYUVALocationsEv
_ZNK21SkColorSpacePrimaries8toXYZD50EP15skcms_Matrix3x3
_ZNK21SkTextBlobRunIterator11positioningEv
_ZNK21SkTextBlobRunIterator15scalarsPerGlyphEv
_ZNK21SkTextBlobRunIterator5isLCDEv
_ZNK22SkDynamicMemoryWStream12bytesWrittenEv
_ZNK22SkDynamicMemoryWStream13writeToStreamEP9SkWStream
_ZNK22SkDynamicMemoryWStream6copyToEPv
_ZNK22SkRuntimeEffectBuilder10makeShaderEPK8SkMatrix
_ZNK22SkRuntimeEffectBuilder11makeBlenderEv
_ZNK22SkRuntimeEffectBuilder15makeColorFilterEv
_ZNK24GrContextThreadSafeProxy20defaultBackendFormatE11SkColorTypeN5skgpu10RenderableE
_ZNK24GrContextThreadSafeProxy23compressedBackendFormatE24SkTextureCompressionType
_ZNK24GrContextThreadSafeProxy33maxSurfaceSampleCountForColorTypeE11SkColorType
_ZNK24GrContextThreadSafeProxy9abandonedEv
_ZNK24GrYUVABackendTextureInfo15toYUVALocationsEv
_ZNK24GrYUVABackendTextureInfoeqERKS_
_ZNK25GrSurfaceCharacterization10createFBO0Eb
_ZNK25GrSurfaceCharacterization13createResizedEii
_ZNK25GrSurfaceCharacterization16createColorSpaceE5sk_spI12SkColorSpaceE
_ZNK25GrSurfaceCharacterization19createBackendFormatE11SkColorTypeRK15GrBackendFormat
_ZNK25GrSurfaceCharacterizationeqERKS_
_ZNK5SkM4411getRowMajorEPf
_ZNK5SkM443mapEffff
_ZNK5SkM444dumpEv
_ZNK5SkM446invertEPS_
_ZNK5SkM449transposeEv
_ZNK5SkM44eqERKS_
_ZNK5skcpu7Context12makeRecorderEv
_ZNK5skhdr27MasteringDisplayColorVolume8toStringEv
_ZNK5skhdr27MasteringDisplayColorVolume9serializeEv
_ZNK5skhdr27MasteringDisplayColorVolumeeqERKS0_
_ZNK5skhdr28ContentLightLevelInformation17serializePngChunkEv
_ZNK5skhdr28ContentLightLevelInformation8toStringEv
_ZNK5skhdr28ContentLightLevelInformation9serializeEv
_ZNK5skhdr28ContentLightLevelInformationeqERKS0_
_ZNK5skhdr8Metadata17getSerializedAgtmEv
_ZNK5skhdr8Metadata30getMasteringDisplayColorVolumeEPNS_27MasteringDisplayColorVolumeE
_ZNK5skhdr8Metadata31getContentLightLevelInformationEPNS_28ContentLightLevelInformationE
_ZNK5skhdr8Metadata8toStringEv
_ZNK5skhdr8MetadataeqERKS0_
_ZNK6SkData10copySubsetEmm
_ZNK6SkData9copyRangeEmmPv
_ZNK6SkDataeqERKS_
_ZNK6SkFont10getMetricsEP13SkFontMetrics
_ZNK6SkFont11measureTextEPKvm14SkTextEncodingP6SkRectPK7SkPaint
_ZNK6SkFont12makeWithSizeEf
_ZNK6SkFont12textToGlyphsEPKvm14SkTextEncoding6SkSpanItE
_ZNK6SkFont13getInterceptsE6SkSpanIKtES0_IK7SkPointEffPK7SkPaint
_ZNK6SkFont14unicharToGlyphEi
_ZNK6SkFont15getWidthsBoundsE6SkSpanIKtES0_IfES0_I6SkRectEPK7SkPaint
_ZNK6SkFont16unicharsToGlyphsE6SkSpanIKiES0_ItE
_ZNK6SkFont19hasSomeAntiAliasingEv
_ZNK6SkFont4dumpEv
_ZNK6SkFont6getPosE6SkSpanIKtES0_I7SkPointES3_
_ZNK6SkFont7getPathEt
_ZNK6SkFont7getXPosE6SkSpanIKtES0_IfEf
_ZNK6SkFont8getPathsE6SkSpanIKtEPFvPK6SkPathRK8SkMatrixPvES9_
_ZNK6SkFonteqERKS_
_ZNK6SkMesh7isValidEv
_ZNK6SkMesh8validateEv
_ZNK6SkPath11getOvalInfoEv
_ZNK6SkPath11interpolateERKS_fPS_
_ZNK6SkPath12conicWeightsEv
_ZNK6SkPath12getConvexityEv
_ZNK6SkPath12getRRectInfoEv
_ZNK6SkPath12makeFillTypeE14SkPathFillType
_ZNK6SkPath12setConvexityE15SkPathConvexity
_ZNK6SkPath13makeTransformERK8SkMatrix
_ZNK6SkPath13writeToMemoryEPv
_ZNK6SkPath14makeIsVolatileEb
_ZNK6SkPath15getGenerationIDEv
_ZNK6SkPath15getSegmentMasksEv
_ZNK6SkPath15makeInterpolateERKS_f
_ZNK6SkPath16computeConvexityEv
_ZNK6SkPath16isInterpolatableERKS_
_ZNK6SkPath16tryMakeTransformERK8SkMatrix
_ZNK6SkPath17hasComputedBoundsEv
_ZNK6SkPath18computeTightBoundsEv
_ZNK6SkPath19isLastContourClosedEv
_ZNK6SkPath20approximateBytesUsedEv
_ZNK6SkPath20writeToMemoryAsRRectEPv
_ZNK6SkPath21getConvexityOrUnknownEv
_ZNK6SkPath22isZeroLengthSincePointEi
_ZNK6SkPath25makeToggleInverseFillTypeEv
_ZNK6SkPath26conservativelyContainsRectERK6SkRect
_ZNK6SkPath3rawE18SkResolveConvexity
_ZNK6SkPath4Iter15isClosedContourEv
_ZNK6SkPath4dumpEP9SkWStreamb
_ZNK6SkPath4iterEv
_ZNK6SkPath5verbsEv
_ZNK6SkPath6isLineEP7SkPoint
_ZNK6SkPath6isOvalEP6SkRect
_ZNK6SkPath6isRectEP6SkRectPbP15SkPathDirection
_ZNK6SkPath6pointsEv
_ZNK6SkPath7isEmptyEv
_ZNK6SkPath7isRRectEP7SkRRect
_ZNK6SkPath7isValidEv
_ZNK6SkPath8containsE7SkPoint
_ZNK6SkPath8getPointEi
_ZNK6SkPath8getVerbsE6SkSpanIhE
_ZNK6SkPath8isConvexEv
_ZNK6SkPath8isFiniteEv
_ZNK6SkPath9getBoundsEv
_ZNK6SkPath9getLastPtEv
_ZNK6SkPath9getPointsE6SkSpanI7SkPointE
_ZNK6SkPath9serializeEv
_ZNK6SkRect12dumpToStringEb
_ZNK6SkRect4dumpEb
_ZNK6sktext3gpu4Slug4drawEP8SkCanvasRK7SkPaint
_ZNK6sktext3gpu4Slug9serializeEPvm
_ZNK6sktext3gpu4Slug9serializeEv
_ZNK7SkCodec13queryYUVAInfoERKN16SkYUVAPixmapInfo18SupportedDataTypesEPS0_
_ZNK7SkCodec14getEncodedDataEv
_ZNK7SkCodec14outputScanlineEi
_ZNK7SkCodec15applyColorXformEPvPKvi
_ZNK7SkCodec16onOutputScanlineEi
_ZNK7SkConic15computeQuadPOW2Ef
_ZNK7SkConic17chopIntoQuadsPOW2EP7SkPointi
_ZNK7SkDeque18numBlocksAllocatedEv
_ZNK7SkImage10colorSpaceEv
_ZNK7SkImage10hasMipmapsEv
_ZNK7SkImage10makeScaledEP10SkRecorderRK11SkImageInfoRK17SkSamplingOptions
_ZNK7SkImage10makeScaledEP10SkRecorderRK11SkImageInfoRK17SkSamplingOptionsRK14SkSurfaceProps
_ZNK7SkImage10makeScaledERK11SkImageInfoRK17SkSamplingOptions
_ZNK7SkImage10makeShaderE10SkTileModeS0_RK17SkSamplingOptionsPK8SkMatrix
_ZNK7SkImage10makeShaderE10SkTileModeS0_RK17SkSamplingOptionsRK8SkMatrix
_ZNK7SkImage10makeShaderERK17SkSamplingOptionsPK8SkMatrix
_ZNK7SkImage10makeShaderERK17SkSamplingOptionsRK8SkMatrix
_ZNK7SkImage10peekPixelsEP8SkPixmap
_ZNK7SkImage10readPixelsEP15GrDirectContextRK11SkImageInfoPvmiiNS_11CachingHintE
_ZNK7SkImage10readPixelsEP15GrDirectContextRK8SkPixmapiiNS_11CachingHintE
_ZNK7SkImage10readPixelsERK11SkImageInfoPvmiiNS_11CachingHintE
_ZNK7SkImage10readPixelsERK8SkPixmapiiNS_11CachingHintE
_ZNK7SkImage11isAlphaOnlyEv
_ZNK7SkImage11isProtectedEv
_ZNK7SkImage11scalePixelsERK8SkPixmapRK17SkSamplingOptionsNS_11CachingHintE
_ZNK7SkImage11withMipmapsE5sk_spI8SkMipmapE
_ZNK7SkImage13makeRawShaderE10SkTileModeS0_RK17SkSamplingOptionsPK8SkMatrix
_ZNK7SkImage13makeRawShaderE10SkTileModeS0_RK17SkSamplingOptionsRK8SkMatrix
_ZNK7SkImage13makeRawShaderERK17SkSamplingOptionsPK8SkMatrix
_ZNK7SkImage13makeRawShaderERK17SkSamplingOptionsRK8SkMatrix
_ZNK7SkImage13refColorSpaceEv
_ZNK7SkImage14asLegacyBitmapEP8SkBitmapNS_16LegacyBitmapModeE
_ZNK7SkImage14refEncodedDataEv
_ZNK7SkImage15makeRasterImageEP15GrDirectContextNS_11CachingHintE
_ZNK7SkImage18withDefaultMipmapsEv
_ZNK7SkImage19makeNonTextureImageEP15GrDirectContext
_ZNK7SkImage21reinterpretColorSpaceE5sk_spI12SkColorSpaceE
_ZNK7SkImage25asyncRescaleAndReadPixelsERK11SkImageInfoRK7SkIRectNS_12RescaleGammaENS_11RescaleModeEPFvPvSt10unique_ptrIKNS_15AsyncReadResultESt14default_deleteISB_EEES8_
_ZNK7SkImage31asyncRescaleAndReadPixelsYUV420E15SkYUVColorSpace5sk_spI12SkColorSpaceERK7SkIRectRK7SkISizeNS_12RescaleGammaENS_11RescaleModeEPFvPvSt10unique_ptrIKNS_15AsyncReadResultESt14default_deleteISF_EEESC_
_ZNK7SkImage32asyncRescaleAndReadPixelsYUVA420E15SkYUVColorSpace5sk_spI12SkColorSpaceERK7SkIRectRK7SkISizeNS_12RescaleGammaENS_11RescaleModeEPFvPvSt10unique_ptrIKNS_15AsyncReadResultESt14default_deleteISF_EEESC_
_ZNK7SkImage9alphaTypeEv
_ZNK7SkImage9colorTypeEv
_ZNK7SkPaint10refBlenderEv
_ZNK7SkPaint11asBlendModeEv
_ZNK7SkPaint13nothingToDrawEv
_ZNK7SkPaint13refMaskFilterEv
_ZNK7SkPaint13refPathEffectEv
_ZNK7SkPaint14refColorFilterEv
_ZNK7SkPaint14refImageFilterEv
_ZNK7SkPaint15getBlendMode_orE11SkBlendMode
_ZNK7SkPaint17computeFastBoundsERK6SkRectPS0_
_ZNK7SkPaint19doComputeFastBoundsERK6SkRectPS0_NS_5StyleE
_ZNK7SkPaint20canComputeFastBoundsEv
_ZNK7SkPaint9isSrcOverEv
_ZNK7SkPaint9refShaderEv
_ZNK7SkPoint5scaleEfPS_
_ZNK7SkRRect12dumpToStringEb
_ZNK7SkRRect13writeToMemoryEPv
_ZNK7SkRRect22checkCornerContainmentEff
_ZNK7SkRRect4dumpEb
_ZNK7SkRRect5insetEffPS_
_ZNK7SkRRect7isValidEv
_ZNK7SkRRect8containsERK6SkRect
_ZNK7SkRRect9transformERK8SkMatrix
_ZNK7SkRRect9transformERK8SkMatrixPS_
_ZNK8Sk3DView13applyToCanvasEP8SkCanvas
_ZNK8Sk3DView13dotWithNormalEfff
_ZNK8Sk3DView9getMatrixEP8SkMatrix
_ZNK8SkBitmap10colorSpaceEv
_ZNK8SkBitmap10eraseColorE8SkRGBA4fIL11SkAlphaType3EE
_ZNK8SkBitmap10eraseColorEj
_ZNK8SkBitmap10makeShaderE10SkTileModeS0_RK17SkSamplingOptionsPK8SkMatrix
_ZNK8SkBitmap10makeShaderE10SkTileModeS0_RK17SkSamplingOptionsRK8SkMatrix
_ZNK8SkBitmap10makeShaderERK17SkSamplingOptionsPK8SkMatrix
_ZNK8SkBitmap10makeShaderERK17SkSamplingOptionsRK8SkMatrix
_ZNK8SkBitmap10peekPixelsEP8SkPixmap
_ZNK8SkBitmap10readPixelsERK11SkImageInfoPvmii
_ZNK8SkBitmap10readPixelsERK8SkPixmapii
_ZNK8SkBitmap11isImmutableEv
_ZNK8SkBitmap12extractAlphaEPS_PK7SkPaintPNS_9AllocatorEP8SkIPoint
_ZNK8SkBitmap13extractSubsetEPS_RK7SkIRect
_ZNK8SkBitmap13refColorSpaceEv
_ZNK8SkBitmap14pixelRefOriginEv
_ZNK8SkBitmap15getGenerationIDEv
_ZNK8SkBitmap19notifyPixelsChangedEv
_ZNK8SkBitmap5eraseE8SkRGBA4fIL11SkAlphaType3EERK7SkIRect
_ZNK8SkBitmap5eraseEjRK7SkIRect
_ZNK8SkBitmap7asImageEv
_ZNK8SkBitmap7getAddrEii
_ZNK8SkBitmap9getBoundsEP6SkRect
_ZNK8SkBitmap9getBoundsEP7SkIRect
_ZNK8SkCanvas10getSurfaceEv
_ZNK8SkCanvas10isClipRectEv
_ZNK8SkCanvas10onGetPropsEP14SkSurfacePropsb
_ZNK8SkCanvas11getTopPropsEv
_ZNK8SkCanvas11isClipEmptyEv
_ZNK8SkCanvas11onImageInfoEv
_ZNK8SkCanvas11quickRejectERK6SkPath
_ZNK8SkCanvas11quickRejectERK6SkRect
_ZNK8SkCanvas12baseRecorderEv
_ZNK8SkCanvas12getBasePropsEv
_ZNK8SkCanvas12getSaveCountEv
_ZNK8SkCanvas12validateClipEv
_ZNK8SkCanvas14getTotalMatrixEv
_ZNK8SkCanvas16getBaseLayerSizeEv
_ZNK8SkCanvas16getLocalToDeviceEv
_ZNK8SkCanvas16recordingContextEv
_ZNK8SkCanvas18getLocalClipBoundsEv
_ZNK8SkCanvas19getDeviceClipBoundsEv
_ZNK8SkCanvas21accessTopRasterHandleEv
_ZNK8SkCanvas23computeDeviceClipBoundsEb
_ZNK8SkCanvas25androidFramework_isClipAAEv
_ZNK8SkCanvas26canAttemptBlurredRRectDrawERK7SkPaint
_ZNK8SkCanvas27wouldOverwriteEntireSurfaceEPK6SkRectPK7SkPaint13SkEnumBitMaskINS_12PredrawFlagsEE
_ZNK8SkCanvas8getPropsEP14SkSurfaceProps
_ZNK8SkCanvas8recorderEv
_ZNK8SkCanvas9imageInfoEv
_ZNK8SkCanvas9topDeviceEv
_ZNK8SkMatrix10mapVectorsE6SkSpanI7SkPointES0_IKS1_E
_ZNK8SkMatrix11getMaxScaleEv
_ZNK8SkMatrix11getMinScaleEv
_ZNK8SkMatrix12isSimilarityEf
_ZNK8SkMatrix13writeToMemoryEPv
_ZNK8SkMatrix14decomposeScaleEP6SkSizePS_
_ZNK8SkMatrix15computeTypeMaskEv
_ZNK8SkMatrix15getMinMaxScalesEPf
_ZNK8SkMatrix19mapPointPerspectiveE7SkPoint
_ZNK8SkMatrix20mapHomogeneousPointsE6SkSpanI8SkPoint3ES0_IKS1_E
_ZNK8SkMatrix20preservesRightAnglesEf
_ZNK8SkMatrix21mapRectScaleTranslateEP6SkRectRKS0_
_ZNK8SkMatrix22mapPointsToHomogeneousE6SkSpanI8SkPoint3ES0_IK7SkPointE
_ZNK8SkMatrix26computePerspectiveTypeMaskEv
_ZNK8SkMatrix4dumpEv
_ZNK8SkMatrix6invertEv
_ZNK8SkMatrix7mapRectEP6SkRectRKS0_
_ZNK8SkMatrix8asAffineEPf
_ZNK8SkMatrix9mapPointsE6SkSpanI7SkPointES0_IKS1_E
_ZNK8SkMatrix9mapRadiusEf
_ZNK8SkPixmap10colorSpaceEv
_ZNK8SkPixmap10getColor4fEii
_ZNK8SkPixmap10readPixelsERK11SkImageInfoPvmii
_ZNK8SkPixmap11scalePixelsERKS_RK17SkSamplingOptions
_ZNK8SkPixmap13extractSubsetEPS_RK7SkIRect
_ZNK8SkPixmap13refColorSpaceEv
_ZNK8SkPixmap15computeIsOpaqueEv
_ZNK8SkPixmap5eraseERK8SkRGBA4fIL11SkAlphaType3EEPK7SkIRect
_ZNK8SkPixmap5eraseEjRK7SkIRect
_ZNK8SkPixmap8getColorEii
_ZNK8SkPixmap9getAlphafEii
_ZNK8SkRGBA4fIL11SkAlphaType3EE12toBytes_RGBAEv
_ZNK8SkRGBA4fIL11SkAlphaType3EE9toSkColorEv
_ZNK8SkRegion10intersectsERK7SkIRect
_ZNK8SkRegion10intersectsERKS_
_ZNK8SkRegion13writeToMemoryEPv
_ZNK8SkRegion15addBoundaryPathEP13SkPathBuilder
_ZNK8SkRegion15getBoundaryPathEv
_ZNK8SkRegion20count_runtype_valuesEPiS0_
_ZNK8SkRegion23computeRegionComplexityEv
_ZNK8SkRegion7getRunsEPiS0_
_ZNK8SkRegion7isValidEv
_ZNK8SkRegion8containsERK7SkIRect
_ZNK8SkRegion8containsERKS_
_ZNK8SkRegion8containsEii
_ZNK8SkRegion9translateEiiPS_
_ZNK8SkRegioneqERKS_
_ZNK8SkShader19makeWithColorFilterE5sk_spI13SkColorFilterE
_ZNK8SkShader19makeWithLocalMatrixERK8SkMatrix
_ZNK8SkShader25makeWithWorkingColorSpaceE5sk_spI12SkColorSpaceES2_
_ZNK8SkShader8isAImageEP8SkMatrixP10SkTileMode
_ZNK8SkString3Rec3refEv
_ZNK8SkString3Rec5unrefEv
_ZNK8SkString3Rec6uniqueEv
_ZNK8SkString6equalsEPKc
_ZNK8SkString6equalsEPKcm
_ZNK8SkString6equalsERKS_
_ZNK9SkFontMgr11matchFamilyEPKc
_ZNK9SkFontMgr12makeFromDataE5sk_spI6SkDataEi
_ZNK9SkFontMgr12makeFromFileEPKci
_ZNK9SkFontMgr13countFamiliesEv
_ZNK9SkFontMgr13getFamilyNameEiP8SkString
_ZNK9SkFontMgr14createStyleSetEi
_ZNK9SkFontMgr14makeFromStreamESt10unique_ptrI13SkStreamAssetSt14default_deleteIS1_EERK15SkFontArguments
_ZNK9SkFontMgr14makeFromStreamESt10unique_ptrI13SkStreamAssetSt14default_deleteIS1_EEi
_ZNK9SkFontMgr16matchFamilyStyleEPKcRK11SkFontStyle
_ZNK9SkFontMgr18legacyMakeTypefaceEPKc11SkFontStyle
_ZNK9SkFontMgr25matchFamilyStyleCharacterEPKcRK11SkFontStylePS1_ii
_ZNK9SkPathRef16dataMatchesVerbsEv
_ZNK9SkPathRef20approximateBytesUsedEv
_ZNK9SkPathRef5genIDE14SkPathFillType
_ZNK9SkPathRef7isRRectEv
_ZNK9SkPathRef7isValidEv
_ZNK9SkPathRefeqERKS_
_ZNK9SkPicture10makeShaderE10SkTileModeS0_12SkFilterModePK8SkMatrixPK6SkRect
_ZNK9SkPicture12createHeaderEv
_ZNK9SkPicture8backportEv
_ZNK9SkPicture9serializeEP9SkWStreamPK13SkSerialProcs
_ZNK9SkPicture9serializeEP9SkWStreamPK13SkSerialProcsP11SkRefCntSetb
_ZNK9SkPicture9serializeEPK13SkSerialProcs
_ZNK9SkRSXform10toTriStripEffP7SkPoint
_ZNK9SkRSXform6toQuadEffP7SkPoint
_ZNK9SkSurface12baseRecorderEv
_ZNK9SkSurface12characterizeEP25GrSurfaceCharacterization
_ZNK9SkSurface12isCompatibleERK25GrSurfaceCharacterization
_ZNK9SkSurface16recordingContextEv
_ZNK9SkSurface8recorderEv
_ZNSt10_HashtableIiSt4pairIKiiESaIS2_ENSt8__detail10_Select1stESt8equal_toIiESt4hashIiENS4_18_Mod_range_hashingENS4_20_Default_ranged_hashENS4_20_Prime_rehash_policyENS4_17_Hashtable_traitsILb0ELb0ELb1EEEE9_M_rehashEmSt17integral_constantIbLb1EE
_ZNSt10_HashtableIiiSaIiENSt8__detail9_IdentityESt8equal_toIiESt4hashIiENS1_18_Mod_range_hashingENS1_20_Default_ranged_hashENS1_20_Prime_rehash_policyENS1_17_Hashtable_traitsILb0ELb1ELb1EEEE16_M_insert_uniqueIRKiSF_NS1_10_AllocNodeISaINS1_10_Hash_nodeIiLb0EEEEEEEESt4pairINS1_14_Node_iteratorIiLb1ELb0EEEbEOT_OT0_RKT1_
_ZNSt10_HashtableIiiSaIiENSt8__detail9_IdentityESt8equal_toIiESt4hashIiENS1_18_Mod_range_hashingENS1_20_Default_ranged_hashENS1_20_Prime_rehash_policyENS1_17_Hashtable_traitsILb0ELb1ELb1EEEE8_M_eraseESt17integral_constantIbLb1EERKi
_ZNSt10_HashtableIiiSaIiENSt8__detail9_IdentityESt8equal_toIiESt4hashIiENS1_18_Mod_range_hashingENS1_20_Default_ranged_hashENS1_20_Prime_rehash_policyENS1_17_Hashtable_traitsILb0ELb1ELb1EEEE9_M_rehashEmSt17integral_constantIbLb1EE
_ZNSt5dequeISt8functionIFvvEESaIS2_EE16_M_push_back_auxIJS2_EEEvDpOT_
_ZNSt5dequeISt8functionIFvvEESaIS2_EE17_M_reallocate_mapEmb
_ZNSt5dequeISt8functionIFvvEESaIS2_EE19_M_destroy_data_auxESt15_Deque_iteratorIS2_RS2_PS2_ES8_
_ZNSt8_Rb_treeINSt7__cxx1112basic_stringIcSt11char_traitsIcESaIcEEESt4pairIKS5_iESt10_Select1stIS8_ESt4lessIS5_ESaIS8_EE22_M_emplace_hint_uniqueIJRKSt21piecewise_construct_tSt5tupleIJOS5_EESJ_IJEEEEESt17_Rb_tree_iteratorIS8_ESt23_Rb_tree_const_iteratorIS8_EDpOT_
_ZNSt8_Rb_treeINSt7__cxx1112basic_stringIcSt11char_traitsIcESaIcEEESt4pairIKS5_iESt10_Select1stIS8_ESt4lessIS5_ESaIS8_EE22_M_emplace_hint_uniqueIJRKSt21piecewise_construct_tSt5tupleIJRS7_EESJ_IJEEEEESt17_Rb_tree_iteratorIS8_ESt23_Rb_tree_const_iteratorIS8_EDpOT_
_ZNSt8_Rb_treeINSt7__cxx1112basic_stringIcSt11char_traitsIcESaIcEEESt4pairIKS5_iESt10_Select1stIS8_ESt4lessIS5_ESaIS8_EE24_M_get_insert_unique_posERS7_
_ZNSt8_Rb_treeINSt7__cxx1112basic_stringIcSt11char_traitsIcESaIcEEESt4pairIKS5_iESt10_Select1stIS8_ESt4lessIS5_ESaIS8_EE29_M_get_insert_hint_unique_posESt23_Rb_tree_const_iteratorIS8_ERS7_
_ZNSt8_Rb_treeINSt7__cxx1112basic_stringIcSt11char_traitsIcESaIcEEESt4pairIKS5_iESt10_Select1stIS8_ESt4lessIS5_ESaIS8_EE8_M_eraseEPSt13_Rb_tree_nodeIS8_E
_ZNSt8_Rb_treeIjjSt9_IdentityIjESt4lessIjESaIjEE8_M_eraseEPSt13_Rb_tree_nodeIjE
_ZNSt8__detail9_Map_baseIiSt4pairIKiiESaIS3_ENS_10_Select1stESt8equal_toIiESt4hashIiENS_18_Mod_range_hashingENS_20_Default_ranged_hashENS_20_Prime_rehash_policyENS_17_Hashtable_traitsILb0ELb0ELb1EEELb1EEixERS2_
_ZSt12__str_concatINSt7__cxx1112basic_stringIcSt11char_traitsIcESaIcEEEET_PKNS6_10value_typeENS6_9size_typeES9_SA_RKNS6_14allocator_typeE
_ZSt19piecewise_construct
_ZSt27__throw_bad_optional_accessv
_ZSt4swapI8SkBitmapENSt9enable_ifIXsr6__and_ISt6__not_ISt15__is_tuple_likeIT_EESt21is_move_constructibleIS4_ESt18is_move_assignableIS4_EEE5valueEvE4typeERS4_SD_
_ZSt4swapIN15SkAnimatedImage5FrameEENSt9enable_ifIXsr6__and_ISt6__not_ISt15__is_tuple_likeIT_EESt21is_move_constructibleIS5_ESt18is_move_assignableIS5_EEE5valueEvE4typeERS5_SE_
_ZStplIcSt11char_traitsIcESaIcEENSt7__cxx1112basic_stringIT_T0_T1_EEOS8_PKS5_
_ZStplIcSt11char_traitsIcESaIcEENSt7__cxx1112basic_stringIT_T0_T1_EEOS8_RKS8_
_ZStplIcSt11char_traitsIcESaIcEENSt7__cxx1112basic_stringIT_T0_T1_EEOS8_S5_
_ZStplIcSt11char_traitsIcESaIcEENSt7__cxx1112basic_stringIT_T0_T1_EEOS8_S9_
_ZStplIcSt11char_traitsIcESaIcEENSt7__cxx1112basic_stringIT_T0_T1_EEPKS5_OS8_
_ZStplIcSt11char_traitsIcESaIcEENSt7__cxx1112basic_stringIT_T0_T1_EEPKS5_RKS8_
_ZStplIcSt11char_traitsIcESaIcEENSt7__cxx1112basic_stringIT_T0_T1_EES5_OS8_
_ZTV10SkDocument
_ZTV10SkDrawable
_ZTV10SkExecutor
_ZTV10SkPixelRef
_ZTV10SkTypeface
_ZTV11SkDataTable
_ZTV12SkColorTable
_ZTV12SkFILEStream
_ZTV12SkNWayCanvas
_ZTV13SkFILEWStream
_ZTV13SkImageFilter
_ZTV14SkAndroidCodec
_ZTV14SkCapabilities
_ZTV14SkMemoryStream
_ZTV14SkNoDrawCanvas
_ZTV14SkRTreeFactory
_ZTV15GrDirectContext
_ZTV15SkAnimatedImage
_ZTV15SkRuntimeEffect
_ZTV16SkContourMeasure
_ZTV16SkImageGenerator
_ZTV16SkOrderedFontMgr
_ZTV16SkOverdrawCanvas
_ZTV18GrTextureGenerator
_ZTV19SkPaintFilterCanvas
_ZTV22SkDynamicMemoryWStream
_ZTV24GrContextThreadSafeProxy
_ZTV26GrExternalTextureGenerator
_ZTV7SkCodec
_ZTV7SkImage
_ZTV8SkCanvas
_ZTV9SkEncoder
_ZTV9SkPicture
_ZTV9SkSurface
_ZTV9SkWStream
_ZTVN4SkSL8Compiler21CompilerErrorReporterE
_ZTVN5skgpu19MutableTextureStateE
_ZTVN6sktext3gpu4SlugE
_ZTVN8SkBitmap13HeapAllocatorE
_ZZNSt19_Sp_make_shared_tag5_S_tiEvE5__tag
_ZeqRK6SkPathS1_
_ZeqRK7SkPaintS1_
_ZeqRK8SkMatrixS1_
