??$sk_collection_check_bounds@H@@YAHHH@Z
??$sk_collection_check_bounds@_K@@YA_K_K0@Z
??$sk_collection_check_length@_K@@YA_K_K0@Z
??0?$SkCanvasVirtualEnforcer@VSkCanvas@@@@QEAA@XZ
??0?$SkNVRefCnt@VGrContextThreadSafeProxy@@@@QEAA@XZ
??0?$SkNVRefCnt@VGrPromiseImageTexture@@@@QEAA@XZ
??0?$SkNVRefCnt@VSkColorSpace@@@@QEAA@XZ
??0?$SkNVRefCnt@VSkData@@@@QEAA@XZ
??0?$SkNVRefCnt@VSkMeshSpecification@@@@QEAA@XZ
??0?$SkNVRefCnt@VSkPathRef@@@@QEAA@XZ
??0?$SkNVRefCnt@VSkTextBlob@@@@QEAA@XZ
??0?$SkNVRefCnt@VSkVertices@@@@QEAA@XZ
??0AbortCallback@SkPicture@@IEAA@XZ
??0Agtm@skhdr@@QEAA@AEBV01@@Z
??0Agtm@skhdr@@QEAA@XZ
??0Allocator@SkBitmap@@QEAA@XZ
??0AttributeList@SkPDF@@QEAA@XZ
??0Builder@SkVertices@@AEAA@AEBUDesc@1@@Z
??0Builder@SkVertices@@QEAA@$$QEAV01@@Z
??0Builder@SkVertices@@QEAA@W4VertexMode@1@HHI@Z
??0ChildPtr@SkRuntimeEffect@@QEAA@$$QEAV01@@Z
??0ChildPtr@SkRuntimeEffect@@QEAA@AEBV01@@Z
??0ChildPtr@SkRuntimeEffect@@QEAA@V?$sk_sp@VSkBlender@@@@@Z
??0ChildPtr@SkRuntimeEffect@@QEAA@V?$sk_sp@VSkColorFilter@@@@@Z
??0ChildPtr@SkRuntimeEffect@@QEAA@V?$sk_sp@VSkFlattenable@@@@@Z
??0ChildPtr@SkRuntimeEffect@@QEAA@V?$sk_sp@VSkShader@@@@@Z
??0ChildPtr@SkRuntimeEffect@@QEAA@XZ
??0Cliperator@SkRegion@@QEAA@AEBV1@AEBUSkIRect@@@Z
??0Compiler@SkSL@@QEAA@XZ
??0ContentLightLevelInformation@skhdr@@QEAA@XZ
??0Decoder@SkCodecs@@QEAA@XZ
??0Frame@SkEncoder@@QEAA@$$QEAU01@@Z
??0Frame@SkEncoder@@QEAA@AEBU01@@Z
??0Frame@SkEncoder@@QEAA@XZ
??0GrBackendFormat@@AEAA@W4GrColorType@@W4SkTextureCompressionType@@_N@Z
??0GrBackendFormat@@QEAA@AEBV0@@Z
??0GrBackendFormat@@QEAA@XZ
??0GrBackendRenderTarget@@QEAA@AEBV0@@Z
??0GrBackendRenderTarget@@QEAA@HHHHAEBUGrMockRenderTargetInfo@@@Z
??0GrBackendRenderTarget@@QEAA@XZ
??0GrBackendSemaphore@@QEAA@AEBV0@@Z
??0GrBackendSemaphore@@QEAA@XZ
??0GrBackendTexture@@QEAA@AEBV0@@Z
??0GrBackendTexture@@QEAA@HHW4Mipmapped@skgpu@@AEBUGrMockTextureInfo@@V?$basic_string_view@DU?$char_traits@D@std@@@std@@@Z
??0GrBackendTexture@@QEAA@XZ
??0GrContextOptions@@QEAA@XZ
??0GrContextThreadSafeProxy@@IEAA@W4GrBackendApi@@AEBUGrContextOptions@@@Z
??0GrDeferredDisplayList@@AEAA@AEBVGrSurfaceCharacterization@@V?$sk_sp@VGrRenderTargetProxy@@@@V?$sk_sp@VLazyProxyData@GrDeferredDisplayList@@@@@Z
??0GrDeferredDisplayListRecorder@@QEAA@AEBVGrSurfaceCharacterization@@@Z
??0GrDirectContext@@IEAA@W4GrBackendApi@@AEBUGrContextOptions@@V?$sk_sp@VGrContextThreadSafeProxy@@@@@Z
??0GrDriverBugWorkarounds@@QEAA@AEBV?$vector@HV?$allocator@H@std@@@std@@@Z
??0GrDriverBugWorkarounds@@QEAA@XZ
??0GrExternalTextureGenerator@@QEAA@AEBUSkImageInfo@@@Z
??0GrPromiseImageTexture@@AEAA@AEBVGrBackendTexture@@@Z
??0GrSurfaceCharacterization@@AEAA@V?$sk_sp@VGrContextThreadSafeProxy@@@@_KAEBUSkImageInfo@@AEBVGrBackendFormat@@W4GrSurfaceOrigin@@HW4Textureable@0@W4Mipmapped@skgpu@@W4UsesGLFBO0@0@W4VkRTSupportsInputAttachment@0@W4VulkanSecondaryCBCompatible@0@W4Protected@7@AEBVSkSurfaceProps@@@Z
??0GrSurfaceCharacterization@@QEAA@$$QEAV0@@Z
??0GrSurfaceCharacterization@@QEAA@AEBV0@@Z
??0GrSurfaceCharacterization@@QEAA@XZ
??0GrTextureGenerator@@IEAA@AEBUSkImageInfo@@I@Z
??0GrYUVABackendTextureInfo@@QEAA@AEBV0@@Z
??0GrYUVABackendTextureInfo@@QEAA@AEBVSkYUVAInfo@@QEBVGrBackendFormat@@W4Mipmapped@skgpu@@W4GrSurfaceOrigin@@@Z
??0GrYUVABackendTextureInfo@@QEAA@XZ
??0GrYUVABackendTextures@@QEAA@$$QEAV0@@Z
??0GrYUVABackendTextures@@QEAA@AEBVSkYUVAInfo@@QEBVGrBackendTexture@@W4GrSurfaceOrigin@@@Z
??0GrYUVABackendTextures@@QEAA@XZ
??0HeapAllocator@SkBitmap@@QEAA@XZ
??0ImageSetEntry@SkCanvas@@QEAA@AEBU01@@Z
??0ImageSetEntry@SkCanvas@@QEAA@V?$sk_sp@$$CBVSkImage@@@@AEBUSkRect@@1HMI_N@Z
??0ImageSetEntry@SkCanvas@@QEAA@V?$sk_sp@$$CBVSkImage@@@@AEBUSkRect@@1MI@Z
??0ImageSetEntry@SkCanvas@@QEAA@XZ
??0Iter@SkOSFile@@QEAA@QEBD0@Z
??0Iter@SkOSFile@@QEAA@XZ
??0Iter@SkPath@@QEAA@AEBV1@_N@Z
??0Iter@SkPath@@QEAA@XZ
??0Iter@SkTextBlob@@QEAA@AEBV1@@Z
??0Iterator@SkRegion@@QEAA@AEBV1@@Z
??0Iterator@SkRegion@@QEAA@XZ
??0MasteringDisplayColorVolume@skhdr@@QEAA@XZ
??0Metadata@skhdr@@QEAA@$$QEAV01@@Z
??0Metadata@skhdr@@QEAA@AEBV01@@Z
??0Metadata@skhdr@@QEAA@XZ
??0MutableTextureState@skgpu@@QEAA@AEBV01@@Z
??0MutableTextureState@skgpu@@QEAA@XZ
??0PersistentCache@GrContextOptions@@IEAA@XZ
??0ProgramIterator@GrDeferredDisplayList@@QEAA@PEAVGrDirectContext@@PEAV1@@Z
??0RawIter@SkPath@@QEAA@AEBV1@@Z
??0RawIter@SkPath@@QEAA@XZ
??0Recorder@skcpu@@QEAA@XZ
??0ScopedTracer@skia_private@@QEAA@XZ
??0Segment@SkJpegMetadataDecoder@@QEAA@$$QEAU01@@Z
??0Segment@SkJpegMetadataDecoder@@QEAA@AEBU01@@Z
??0Segment@SkJpegMetadataDecoder@@QEAA@EV?$sk_sp@$$CBVSkData@@@@@Z
??0ShaderErrorHandler@skgpu@@IEAA@XZ
??0Sk3DView@@QEAA@XZ
??0SkAndroidCodec@@IEAA@PEAVSkCodec@@@Z
??0SkAnimatedImage@@AEAA@V?$unique_ptr@VSkAndroidCodec@@U?$default_delete@VSkAndroidCodec@@@std@@@std@@AEBUSkImageInfo@@USkIRect@@V?$sk_sp@VSkPicture@@@@@Z
??0SkBBHFactory@@IEAA@XZ
??0SkBitmap@@QEAA@$$QEAV0@@Z
??0SkBitmap@@QEAA@AEBV0@@Z
??0SkBitmap@@QEAA@XZ
??0SkBlender@@AEAA@XZ
??0SkCanvas@@AEAA@AEBVSkBitmap@@V?$unique_ptr@VSkRasterHandleAllocator@@U?$default_delete@VSkRasterHandleAllocator@@@std@@@std@@PEAXPEBVSkSurfaceProps@@@Z
??0SkCanvas@@IEAA@AEBUSkIRect@@@Z
??0SkCanvas@@QEAA@AEBVSkBitmap@@@Z
??0SkCanvas@@QEAA@AEBVSkBitmap@@AEBVSkSurfaceProps@@@Z
??0SkCanvas@@QEAA@HHPEBVSkSurfaceProps@@@Z
??0SkCanvas@@QEAA@V?$sk_sp@VSkDevice@@@@@Z
??0SkCanvas@@QEAA@XZ
??0SkCapabilities@@IEAA@XZ
??0SkCodec@@IEAA@$$QEAUSkEncodedInfo@@W4skcms_PixelFormat@@V?$unique_ptr@VSkStream@@U?$default_delete@VSkStream@@@std@@@std@@W4SkEncodedOrigin@@@Z
??0SkColorFilter@@AEAA@XZ
??0SkColorInfo@@QEAA@$$QEAV0@@Z
??0SkColorInfo@@QEAA@AEBV0@@Z
??0SkColorInfo@@QEAA@W4SkColorType@@W4SkAlphaType@@V?$sk_sp@VSkColorSpace@@@@@Z
??0SkColorInfo@@QEAA@XZ
??0SkColorMatrix@@QEAA@MMMMMMMMMMMMMMMMMMMM@Z
??0SkColorMatrix@@QEAA@XZ
??0SkColorSpace@@AEAA@AEBUskcms_TransferFunction@@AEBUskcms_Matrix3x3@@@Z
??0SkColorTable@@AEAA@AEBVSkBitmap@@@Z
??0SkContainerAllocator@@QEAA@_KH@Z
??0SkContourMeasure@@AEAA@$$QEAV?$SkTDArray@USegment@SkContourMeasure@@@@$$QEAV?$SkTDArray@USkPoint@@@@M_N@Z
??0SkContourMeasureIter@@QEAA@$$QEAV0@@Z
??0SkContourMeasureIter@@QEAA@AEBVSkPath@@_NM@Z
??0SkContourMeasureIter@@QEAA@XZ
??0SkCubicMap@@QEAA@USkPoint@@0@Z
??0SkCustomTypefaceBuilder@@QEAA@$$QEAV0@@Z
??0SkCustomTypefaceBuilder@@QEAA@AEBV0@@Z
??0SkCustomTypefaceBuilder@@QEAA@XZ
??0SkData@@AEAA@V?$SkSpan@W4byte@std@@@@P6AXPEBXPEAX@Z2@Z
??0SkData@@AEAA@_K@Z
??0SkDataTable@@AEAA@PEBUDir@0@HP6AXPEAX@Z1@Z
??0SkDataTable@@AEAA@PEBX_KHP6AXPEAX@Z2@Z
??0SkDataTable@@AEAA@XZ
??0SkDeque@@QEAA@_KH@Z
??0SkDeque@@QEAA@_KPEAX0H@Z
??0SkDeserialProcs@@QEAA@XZ
??0SkDiscardableMemory@@IEAA@XZ
??0SkDocument@@IEAA@PEAVSkWStream@@@Z
??0SkDrawable@@IEAA@XZ
??0SkDynamicMemoryWStream@@QEAA@$$QEAV0@@Z
??0SkDynamicMemoryWStream@@QEAA@XZ
??0SkEncoder@@IEAA@AEBVSkPixmap@@_K@Z
??0SkEventTracer@@IEAA@XZ
??0SkExecutor@@IEAA@XZ
??0SkFILEStream@@AEAA@PEAU_iobuf@@_K1@Z
??0SkFILEStream@@AEAA@V?$shared_ptr@U_iobuf@@@std@@_K11@Z
??0SkFILEStream@@AEAA@V?$shared_ptr@U_iobuf@@@std@@_K1@Z
??0SkFILEStream@@QEAA@PEAU_iobuf@@@Z
??0SkFILEStream@@QEAA@PEAU_iobuf@@_K@Z
??0SkFILEStream@@QEAA@QEBD@Z
??0SkFILEWStream@@QEAA@QEBD@Z
??0SkFlattenable@@QEAA@XZ
??0SkFont@@QEAA@$$QEAV0@@Z
??0SkFont@@QEAA@AEBV0@@Z
??0SkFont@@QEAA@V?$sk_sp@VSkTypeface@@@@@Z
??0SkFont@@QEAA@V?$sk_sp@VSkTypeface@@@@M@Z
??0SkFont@@QEAA@V?$sk_sp@VSkTypeface@@@@MMM@Z
??0SkFont@@QEAA@XZ
??0SkFontMgr@@QEAA@XZ
??0SkFontStyle@@QEAA@HHW4Slant@0@@Z
??0SkFontStyle@@QEAA@XZ
??0SkFontStyleSet@@QEAA@XZ
??0SkIRect@@QEAA@XZ
??0SkImage@@AEAA@AEBUSkImageInfo@@I@Z
??0SkImageFilter@@QEAA@XZ
??0SkImageGenerator@@IEAA@AEBUSkImageInfo@@I@Z
??0SkImageInfo@@AEAA@USkISize@@$$QEAVSkColorInfo@@@Z
??0SkImageInfo@@AEAA@USkISize@@AEBVSkColorInfo@@@Z
??0SkImageInfo@@QEAA@$$QEAU0@@Z
??0SkImageInfo@@QEAA@AEBU0@@Z
??0SkImageInfo@@QEAA@XZ
??0SkJpegMetadataDecoder@@QEAA@XZ
??0SkLatticeIter@@QEAA@$$QEAV0@@Z
??0SkLatticeIter@@QEAA@AEBULattice@SkCanvas@@AEBUSkRect@@@Z
??0SkLatticeIter@@QEAA@AEBV0@@Z
??0SkLatticeIter@@QEAA@HHAEBUSkIRect@@AEBUSkRect@@@Z
??0SkM44@@QEAA@AEBV0@0@Z
??0SkM44@@QEAA@AEBVSkMatrix@@@Z
??0SkM44@@QEAA@MMMMMMMMMMMMMMMM@Z
??0SkM44@@QEAA@W4NaN_Constructor@0@@Z
??0SkM44@@QEAA@W4Uninitialized_Constructor@0@@Z
??0SkM44@@QEAA@XZ
??0SkMaskFilter@@QEAA@XZ
??0SkMatrix@@AEAA@MMMMMMMMMH@Z
??0SkMatrix@@QEAA@XZ
??0SkMemoryStream@@QEAA@PEBX_K_N@Z
??0SkMemoryStream@@QEAA@V?$sk_sp@$$CBVSkData@@@@@Z
??0SkMemoryStream@@QEAA@XZ
??0SkMemoryStream@@QEAA@_K@Z
??0SkMesh@@QEAA@$$QEAV0@@Z
??0SkMesh@@QEAA@AEBV0@@Z
??0SkMesh@@QEAA@XZ
??0SkMeshSpecification@@AEAA@V?$SkSpan@$$CBUAttribute@SkMeshSpecification@@@@_KV?$SkSpan@$$CBUVarying@SkMeshSpecification@@@@HIV?$vector@UUniform@SkRuntimeEffect@@V?$allocator@UUniform@SkRuntimeEffect@@@std@@@std@@V?$vector@UChild@SkRuntimeEffect@@V?$allocator@UChild@SkRuntimeEffect@@@std@@@4@V?$unique_ptr@$$CBUProgram@SkSL@@U?$default_delete@$$CBUProgram@SkSL@@@std@@@4@5W4ColorType@0@V?$sk_sp@VSkColorSpace@@@@W4SkAlphaType@@@Z
??0SkNWayCanvas@@QEAA@HH@Z
??0SkNoDrawCanvas@@QEAA@AEBUSkIRect@@@Z
??0SkNoDrawCanvas@@QEAA@HH@Z
??0SkNullWStream@@QEAA@XZ
??0SkOpBuilder@@QEAA@$$QEAV0@@Z
??0SkOpBuilder@@QEAA@AEBV0@@Z
??0SkOpBuilder@@QEAA@XZ
??0SkOrderedFontMgr@@QEAA@XZ
??0SkOverdrawCanvas@@QEAA@PEAVSkCanvas@@@Z
??0SkPaint@@QEAA@$$QEAV0@@Z
??0SkPaint@@QEAA@AEBU?$SkRGBA4f@$02@@PEAVSkColorSpace@@@Z
??0SkPaint@@QEAA@AEBV0@@Z
??0SkPaint@@QEAA@XZ
??0SkPaintFilterCanvas@@QEAA@PEAVSkCanvas@@@Z
??0SkPath@@AEAA@V?$sk_sp@VSkPathData@@@@W4SkPathFillType@@_N@Z
??0SkPath@@QEAA@AEBV0@@Z
??0SkPath@@QEAA@W4SkPathFillType@@@Z
??0SkPath@@QEAA@XZ
??0SkPathBuilder@@QEAA@AEBV0@@Z
??0SkPathBuilder@@QEAA@AEBVSkPath@@@Z
??0SkPathBuilder@@QEAA@W4SkPathFillType@@@Z
??0SkPathBuilder@@QEAA@XZ
??0SkPathEffect@@AEAA@XZ
??0SkPathIter@@QEAA@$$QEAV0@@Z
??0SkPathIter@@QEAA@V?$SkSpan@$$CBUSkPoint@@@@V?$SkSpan@$$CBW4SkPathVerb@@@@V?$SkSpan@$$CBM@@@Z
??0SkPathMeasure@@QEAA@$$QEAV0@@Z
??0SkPathMeasure@@QEAA@AEBVSkPath@@_NM@Z
??0SkPathMeasure@@QEAA@XZ
??0SkPathRef@@AEAA@HHH@Z
??0SkPathRef@@QEAA@V?$SkSpan@$$CBUSkPoint@@@@V?$SkSpan@$$CBW4SkPathVerb@@@@V?$SkSpan@$$CBM@@IPEBVSkMatrix@@@Z
??0SkPicture@@AEAA@XZ
??0SkPictureRecorder@@QEAA@XZ
??0SkPixelRef@@QEAA@HHPEAX_K@Z
??0SkPixmap@@QEAA@$$QEAV0@@Z
??0SkPixmap@@QEAA@AEBUSkImageInfo@@PEBX_K@Z
??0SkPixmap@@QEAA@AEBV0@@Z
??0SkPixmap@@QEAA@XZ
??0SkRRect@@AEAA@AEBUSkRect@@QEBUSkPoint@@H@Z
??0SkRRect@@QEAA@XZ
??0SkRTreeFactory@@QEAA@XZ
??0SkRasterHandleAllocator@@IEAA@XZ
??0SkRecorder@@QEAA@XZ
??0SkRect@@QEAA@XZ
??0SkRefCnt@@QEAA@XZ
??0SkRefCntBase@@QEAA@XZ
??0SkRegion@@QEAA@AEBUSkIRect@@@Z
??0SkRegion@@QEAA@AEBV0@@Z
??0SkRegion@@QEAA@XZ
??0SkRuntimeEffect@@AEAA@V?$unique_ptr@UProgram@SkSL@@U?$default_delete@UProgram@SkSL@@@std@@@std@@AEBVOptions@0@AEBVFunctionDefinition@SkSL@@$$QEAV?$vector@UUniform@SkRuntimeEffect@@V?$allocator@UUniform@SkRuntimeEffect@@@std@@@2@$$QEAV?$vector@UChild@SkRuntimeEffect@@V?$allocator@UChild@SkRuntimeEffect@@@std@@@2@$$QEAV?$vector@VSampleUsage@SkSL@@V?$allocator@VSampleUsage@SkSL@@@std@@@2@I@Z
??0SkRuntimeEffectBuilder@@IEAA@$$QEAV0@@Z
??0SkRuntimeEffectBuilder@@QEAA@AEBV0@@Z
??0SkRuntimeEffectBuilder@@QEAA@V?$sk_sp@VSkRuntimeEffect@@@@@Z
??0SkRuntimeEffectBuilder@@QEAA@V?$sk_sp@VSkRuntimeEffect@@@@V?$sk_sp@VSkData@@@@@Z
??0SkSamplingOptions@@AEAA@H@Z
??0SkSamplingOptions@@QEAA@AEBUSkCubicResampler@@@Z
??0SkSamplingOptions@@QEAA@W4SkFilterMode@@@Z
??0SkSamplingOptions@@QEAA@W4SkFilterMode@@W4SkMipmapMode@@@Z
??0SkSamplingOptions@@QEAA@XZ
??0SkSerialProcs@@QEAA@XZ
??0SkShader@@AEAA@XZ
??0SkStream@@QEAA@XZ
??0SkStreamAsset@@QEAA@XZ
??0SkStreamMemory@@QEAA@XZ
??0SkStreamRewindable@@QEAA@XZ
??0SkStreamSeekable@@QEAA@XZ
??0SkStrikeClient@@QEAA@V?$sk_sp@VDiscardableHandleManager@SkStrikeClient@@@@_NPEAVSkStrikeCache@@@Z
??0SkStrikeServer@@QEAA@PEAVDiscardableHandleManager@0@@Z
??0SkString@@QEAA@$$QEAV0@@Z
??0SkString@@QEAA@AEBV0@@Z
??0SkString@@QEAA@AEBV?$basic_string@DU?$char_traits@D@std@@V?$allocator@D@2@@std@@@Z
??0SkString@@QEAA@QEBD@Z
??0SkString@@QEAA@QEBD_K@Z
??0SkString@@QEAA@V?$basic_string_view@DU?$char_traits@D@std@@@std@@@Z
??0SkString@@QEAA@XZ
??0SkString@@QEAA@_K@Z
??0SkStrokeRec@@QEAA@AEBVSkPaint@@M@Z
??0SkStrokeRec@@QEAA@AEBVSkPaint@@W4Style@1@M@Z
??0SkStrokeRec@@QEAA@W4InitStyle@0@@Z
??0SkSurface@@IEAA@AEBUSkImageInfo@@PEBVSkSurfaceProps@@@Z
??0SkSurface@@IEAA@HHPEBVSkSurfaceProps@@@Z
??0SkSurfaceProps@@QEAA@IW4SkPixelGeometry@@@Z
??0SkSurfaceProps@@QEAA@IW4SkPixelGeometry@@MM@Z
??0SkSurfaceProps@@QEAA@XZ
??0SkTDStorage@@QEAA@$$QEAV0@@Z
??0SkTDStorage@@QEAA@AEBV0@@Z
??0SkTDStorage@@QEAA@H@Z
??0SkTDStorage@@QEAA@PEBXHH@Z
??0SkTextBlob@@AEAA@AEBUSkRect@@@Z
??0SkTextBlobBuilder@@QEAA@XZ
??0SkTextBlobRunIterator@@QEAA@PEBVSkTextBlob@@@Z
??0SkTraceMemoryDump@@IEAA@XZ
??0SkTypeface@@IEAA@AEBVSkFontStyle@@_N@Z
??0SkVertices@@AEAA@XZ
??0SkWStream@@QEAA@XZ
??0SkWeakRefCnt@@QEAA@XZ
??0SkXPSDevice@@QEAA@USkISize@@UOptions@SkXPS@@@Z
??0SkXmp@@QEAA@XZ
??0SkYUVAInfo@@QEAA@USkISize@@W4PlaneConfig@0@W4Subsampling@0@W4SkYUVColorSpace@@W4SkEncodedOrigin@@W4Siting@0@5@Z
??0SkYUVAInfo@@QEAA@XZ
??0SkYUVAPixmapInfo@@QEAA@AEBV0@@Z
??0SkYUVAPixmapInfo@@QEAA@AEBVSkYUVAInfo@@QEBW4SkColorType@@QEB_K@Z
??0SkYUVAPixmapInfo@@QEAA@AEBVSkYUVAInfo@@W4DataType@0@QEB_K@Z
??0SkYUVAPixmapInfo@@QEAA@XZ
??0SkYUVAPixmaps@@AEAA@AEBVSkYUVAInfo@@W4DataType@SkYUVAPixmapInfo@@QEBVSkPixmap@@@Z
??0SkYUVAPixmaps@@AEAA@AEBVSkYUVAPixmapInfo@@V?$sk_sp@VSkData@@@@@Z
??0SkYUVAPixmaps@@QEAA@$$QEAV0@@Z
??0SkYUVAPixmaps@@QEAA@AEBV0@@Z
??0SkYUVAPixmaps@@QEAA@XZ
??0Slug@gpu@sktext@@QEAA@XZ
??0Spanerator@SkRegion@@QEAA@AEBV1@HHH@Z
??0SupportedDataTypes@SkYUVAPixmapInfo@@QEAA@XZ
??0Uniform@SkRuntimeEffect@@QEAA@XZ
??0skjpeg_destination_mgr@@QEAA@PEAVSkWStream@@@Z
??1?$SkCanvasVirtualEnforcer@VSkCanvas@@@@UEAA@XZ
??1?$SkCanvasVirtualEnforcer@VSkNWayCanvas@@@@UEAA@XZ
??1?$SkCanvasVirtualEnforcer@VSkNoDrawCanvas@@@@UEAA@XZ
??1?$SkNVRefCnt@VGrContextThreadSafeProxy@@@@QEAA@XZ
??1?$SkNVRefCnt@VGrPromiseImageTexture@@@@QEAA@XZ
??1?$SkNVRefCnt@VSkColorSpace@@@@QEAA@XZ
??1?$SkNVRefCnt@VSkData@@@@QEAA@XZ
??1?$SkNVRefCnt@VSkMeshSpecification@@@@QEAA@XZ
??1?$SkNVRefCnt@VSkPathRef@@@@QEAA@XZ
??1?$SkNVRefCnt@VSkTextBlob@@@@QEAA@XZ
??1?$SkNVRefCnt@VSkVertices@@@@QEAA@XZ
??1AbortCallback@SkPicture@@UEAA@XZ
??1Agtm@skhdr@@UEAA@XZ
??1Allocator@SkBitmap@@UEAA@XZ
??1AttributeList@SkPDF@@QEAA@XZ
??1Builder@SkVertices@@QEAA@XZ
??1ChildPtr@SkRuntimeEffect@@QEAA@XZ
??1Compiler@SkSL@@QEAA@XZ
??1DiscardableHandleManager@SkStrikeServer@@UEAA@XZ
??1Frame@SkEncoder@@QEAA@XZ
??1GrBackendFormat@@QEAA@XZ
??1GrBackendRenderTarget@@QEAA@XZ
??1GrBackendSemaphore@@QEAA@XZ
??1GrBackendTexture@@QEAA@XZ
??1GrContextThreadSafeProxy@@UEAA@XZ
??1GrDeferredDisplayList@@QEAA@XZ
??1GrDeferredDisplayListRecorder@@QEAA@XZ
??1GrDirectContext@@UEAA@XZ
??1GrExternalTextureGenerator@@UEAA@XZ
??1GrPromiseImageTexture@@QEAA@XZ
??1GrSurfaceCharacterization@@QEAA@XZ
??1GrTextureGenerator@@UEAA@XZ
??1GrYUVABackendTextureInfo@@QEAA@XZ
??1GrYUVABackendTextures@@QEAA@XZ
??1HeapAllocator@SkBitmap@@UEAA@XZ
??1ImageSetEntry@SkCanvas@@QEAA@XZ
??1Iter@SkOSFile@@QEAA@XZ
??1Metadata@skhdr@@QEAA@XZ
??1MutableTextureState@skgpu@@UEAA@XZ
??1PersistentCache@GrContextOptions@@UEAA@XZ
??1ProgramIterator@GrDeferredDisplayList@@QEAA@XZ
??1Recorder@skcpu@@UEAA@XZ
??1ScopedTracer@skia_private@@QEAA@XZ
??1Segment@SkJpegMetadataDecoder@@QEAA@XZ
??1ShaderErrorHandler@skgpu@@UEAA@XZ
??1Sk3DView@@QEAA@XZ
??1SkAndroidCodec@@UEAA@XZ
??1SkAnimatedImage@@UEAA@XZ
??1SkBBHFactory@@UEAA@XZ
??1SkBitmap@@QEAA@XZ
??1SkBlender@@UEAA@XZ
??1SkCanvas@@UEAA@XZ
??1SkCapabilities@@UEAA@XZ
??1SkCodec@@UEAA@XZ
??1SkColorFilter@@UEAA@XZ
??1SkColorInfo@@QEAA@XZ
??1SkColorSpace@@QEAA@XZ
??1SkColorTable@@UEAA@XZ
??1SkContourMeasure@@EEAA@XZ
??1SkContourMeasureIter@@QEAA@XZ
??1SkCustomTypefaceBuilder@@QEAA@XZ
??1SkData@@AEAA@XZ
??1SkDataTable@@EEAA@XZ
??1SkDeque@@QEAA@XZ
??1SkDiscardableMemory@@UEAA@XZ
??1SkDocument@@MEAA@XZ
??1SkDrawable@@UEAA@XZ
??1SkDynamicMemoryWStream@@UEAA@XZ
??1SkEncoder@@UEAA@XZ
??1SkEventTracer@@UEAA@XZ
??1SkExecutor@@UEAA@XZ
??1SkFILEStream@@UEAA@XZ
??1SkFILEWStream@@UEAA@XZ
??1SkFlattenable@@UEAA@XZ
??1SkFont@@QEAA@XZ
??1SkFontMgr@@UEAA@XZ
??1SkFontStyleSet@@UEAA@XZ
??1SkImage@@UEAA@XZ
??1SkImageFilter@@UEAA@XZ
??1SkImageGenerator@@UEAA@XZ
??1SkImageInfo@@QEAA@XZ
??1SkJpegMetadataDecoder@@UEAA@XZ
??1SkLatticeIter@@QEAA@XZ
??1SkMaskFilter@@UEAA@XZ
??1SkMemoryStream@@UEAA@XZ
??1SkMesh@@QEAA@XZ
??1SkMeshSpecification@@QEAA@XZ
??1SkNWayCanvas@@UEAA@XZ
??1SkNoDrawCanvas@@UEAA@XZ
??1SkNullWStream@@UEAA@XZ
??1SkOpBuilder@@QEAA@XZ
??1SkOrderedFontMgr@@UEAA@XZ
??1SkOverdrawCanvas@@UEAA@XZ
??1SkPaint@@QEAA@XZ
??1SkPaintFilterCanvas@@UEAA@XZ
??1SkPath@@QEAA@XZ
??1SkPathBuilder@@QEAA@XZ
??1SkPathEffect@@UEAA@XZ
??1SkPathMeasure@@QEAA@XZ
??1SkPathRef@@QEAA@XZ
??1SkPicture@@UEAA@XZ
??1SkPictureRecorder@@QEAA@XZ
??1SkPixelRef@@UEAA@XZ
??1SkPixmap@@QEAA@XZ
??1SkRTreeFactory@@UEAA@XZ
??1SkRasterHandleAllocator@@UEAA@XZ
??1SkRecorder@@UEAA@XZ
??1SkRefCnt@@UEAA@XZ
??1SkRefCntBase@@UEAA@XZ
??1SkRegion@@QEAA@XZ
??1SkRuntimeEffect@@UEAA@XZ
??1SkRuntimeEffectBuilder@@QEAA@XZ
??1SkSemaphore@@QEAA@XZ
??1SkShader@@UEAA@XZ
??1SkStream@@UEAA@XZ
??1SkStreamAsset@@UEAA@XZ
??1SkStreamMemory@@UEAA@XZ
??1SkStreamRewindable@@UEAA@XZ
??1SkStreamSeekable@@UEAA@XZ
??1SkStrikeClient@@QEAA@XZ
??1SkStrikeServer@@QEAA@XZ
??1SkString@@QEAA@XZ
??1SkSurface@@UEAA@XZ
??1SkTDStorage@@QEAA@XZ
??1SkTextBlob@@AEAA@XZ
??1SkTextBlobBuilder@@QEAA@XZ
??1SkTraceMemoryDump@@MEAA@XZ
??1SkTypeface@@MEAA@XZ
??1SkVertices@@QEAA@XZ
??1SkWStream@@UEAA@XZ
??1SkWeakRefCnt@@UEAA@XZ
??1SkXPSDevice@@UEAA@XZ
??1SkXmp@@UEAA@XZ
??1SkYUVAPixmapInfo@@QEAA@XZ
??1SkYUVAPixmaps@@QEAA@XZ
??1Slug@gpu@sktext@@UEAA@XZ
??2SkTextBlob@@CAPEAX_K@Z
??2SkTextBlob@@CAPEAX_KPEAX@Z
??3SkData@@CAXPEAX@Z
??3SkTextBlob@@CAXPEAX@Z
??3SkVertices@@CAXPEAX@Z
??4Agtm@skhdr@@QEAAAEAV01@AEBV01@@Z
??4Builder@SkVertices@@QEAAAEAV01@$$QEAV01@@Z
??4ChildPtr@SkRuntimeEffect@@QEAAAEAV01@$$QEAV01@@Z
??4ChildPtr@SkRuntimeEffect@@QEAAAEAV01@AEBV01@@Z
??4Cliperator@SkRegion@@QEAAAEAV01@$$QEAV01@@Z
??4Cliperator@SkRegion@@QEAAAEAV01@AEBV01@@Z
??4ContentLightLevelInformation@skhdr@@QEAAAEAU01@$$QEAU01@@Z
??4ContentLightLevelInformation@skhdr@@QEAAAEAU01@AEBU01@@Z
??4Context@skcpu@@QEAAAEAV01@$$QEAV01@@Z
??4Context@skcpu@@QEAAAEAV01@AEBV01@@Z
??4Decoder@SkCodecs@@QEAAAEAU01@$$QEAU01@@Z
??4Decoder@SkCodecs@@QEAAAEAU01@AEBU01@@Z
??4Frame@SkEncoder@@QEAAAEAU01@$$QEAU01@@Z
??4Frame@SkEncoder@@QEAAAEAU01@AEBU01@@Z
??4FrontBufferedStream@skia@android@@QEAAAEAV012@$$QEAV012@@Z
??4FrontBufferedStream@skia@android@@QEAAAEAV012@AEBV012@@Z
??4GrBackendFormat@@QEAAAEAV0@AEBV0@@Z
??4GrBackendRenderTarget@@QEAAAEAV0@AEBV0@@Z
??4GrBackendSemaphore@@QEAAAEAV0@AEBV0@@Z
??4GrBackendTexture@@QEAAAEAV0@AEBV0@@Z
??4GrContextOptions@@QEAAAEAU0@$$QEAU0@@Z
??4GrContextOptions@@QEAAAEAU0@AEBU0@@Z
??4GrDriverBugWorkarounds@@QEAAAEAV0@AEBV0@@Z
??4GrSurfaceCharacterization@@QEAAAEAV0@$$QEAV0@@Z
??4GrSurfaceCharacterization@@QEAAAEAV0@AEBV0@@Z
??4GrYUVABackendTextureInfo@@QEAAAEAV0@AEBV0@@Z
??4GrYUVABackendTextures@@QEAAAEAV0@$$QEAV0@@Z
??4ImageSetEntry@SkCanvas@@QEAAAEAU01@AEBU01@@Z
??4Iter@SkPath@@QEAAAEAV01@$$QEAV01@@Z
??4Iter@SkPath@@QEAAAEAV01@AEBV01@@Z
??4Iter@SkTextBlob@@QEAAAEAV01@$$QEAV01@@Z
??4Iter@SkTextBlob@@QEAAAEAV01@AEBV01@@Z
??4Iterator@SkRegion@@QEAAAEAV01@$$QEAV01@@Z
??4Iterator@SkRegion@@QEAAAEAV01@AEBV01@@Z
??4MasteringDisplayColorVolume@skhdr@@QEAAAEAU01@$$QEAU01@@Z
??4MasteringDisplayColorVolume@skhdr@@QEAAAEAU01@AEBU01@@Z
??4Metadata@skhdr@@QEAAAEAV01@$$QEAV01@@Z
??4Metadata@skhdr@@QEAAAEAV01@AEBV01@@Z
??4MutableTextureState@skgpu@@QEAAAEAV01@AEBV01@@Z
??4RawIter@SkPath@@QEAAAEAV01@$$QEAV01@@Z
??4RawIter@SkPath@@QEAAAEAV01@AEBV01@@Z
??4Segment@SkJpegMetadataDecoder@@QEAAAEAU01@$$QEAU01@@Z
??4Segment@SkJpegMetadataDecoder@@QEAAAEAU01@AEBU01@@Z
??4SkBitmap@@QEAAAEAV0@$$QEAV0@@Z
??4SkBitmap@@QEAAAEAV0@AEBV0@@Z
??4SkBlenders@@QEAAAEAV0@$$QEAV0@@Z
??4SkBlenders@@QEAAAEAV0@AEBV0@@Z
??4SkCanvasStateUtils@@QEAAAEAV0@$$QEAV0@@Z
??4SkCanvasStateUtils@@QEAAAEAV0@AEBV0@@Z
??4SkColorFilters@@QEAAAEAV0@$$QEAV0@@Z
??4SkColorFilters@@QEAAAEAV0@AEBV0@@Z
??4SkColorInfo@@QEAAAEAV0@$$QEAV0@@Z
??4SkColorInfo@@QEAAAEAV0@AEBV0@@Z
??4SkColorMatrix@@QEAAAEAV0@$$QEAV0@@Z
??4SkColorMatrix@@QEAAAEAV0@AEBV0@@Z
??4SkColorSpacePrimaries@@QEAAAEAU0@$$QEAU0@@Z
??4SkColorSpacePrimaries@@QEAAAEAU0@AEBU0@@Z
??4SkContourMeasureIter@@QEAAAEAV0@$$QEAV0@@Z
??4SkCornerPathEffect@@QEAAAEAV0@$$QEAV0@@Z
??4SkCornerPathEffect@@QEAAAEAV0@AEBV0@@Z
??4SkCubicMap@@QEAAAEAV0@$$QEAV0@@Z
??4SkCubicMap@@QEAAAEAV0@AEBV0@@Z
??4SkCustomTypefaceBuilder@@QEAAAEAV0@$$QEAV0@@Z
??4SkCustomTypefaceBuilder@@QEAAAEAV0@AEBV0@@Z
??4SkDashPathEffect@@QEAAAEAV0@$$QEAV0@@Z
??4SkDashPathEffect@@QEAAAEAV0@AEBV0@@Z
??4SkDeserialProcs@@QEAAAEAU0@$$QEAU0@@Z
??4SkDeserialProcs@@QEAAAEAU0@AEBU0@@Z
??4SkDiscretePathEffect@@QEAAAEAV0@$$QEAV0@@Z
??4SkDiscretePathEffect@@QEAAAEAV0@AEBV0@@Z
??4SkDynamicMemoryWStream@@QEAAAEAV0@$$QEAV0@@Z
??4SkFont@@QEAAAEAV0@$$QEAV0@@Z
??4SkFont@@QEAAAEAV0@AEBV0@@Z
??4SkFontMetrics@@QEAAAEAU0@$$QEAU0@@Z
??4SkFontMetrics@@QEAAAEAU0@AEBU0@@Z
??4SkFontStyle@@QEAAAEAV0@$$QEAV0@@Z
??4SkFontStyle@@QEAAAEAV0@AEBV0@@Z
??4SkGainmapShader@@QEAAAEAV0@$$QEAV0@@Z
??4SkGainmapShader@@QEAAAEAV0@AEBV0@@Z
??4SkGradientShader@@QEAAAEAV0@$$QEAV0@@Z
??4SkGradientShader@@QEAAAEAV0@AEBV0@@Z
??4SkGraphics@@QEAAAEAV0@$$QEAV0@@Z
??4SkGraphics@@QEAAAEAV0@AEBV0@@Z
??4SkHighContrastFilter@@QEAAAEAU0@$$QEAU0@@Z
??4SkHighContrastFilter@@QEAAAEAU0@AEBU0@@Z
??4SkIRect@@QEAAAEAU0@$$QEAU0@@Z
??4SkIRect@@QEAAAEAU0@AEBU0@@Z
??4SkImageFilters@@QEAAAEAV0@$$QEAV0@@Z
??4SkImageFilters@@QEAAAEAV0@AEBV0@@Z
??4SkImageInfo@@QEAAAEAU0@$$QEAU0@@Z
??4SkImageInfo@@QEAAAEAU0@AEBU0@@Z
??4SkJpegGainmapEncoder@@QEAAAEAV0@$$QEAV0@@Z
??4SkJpegGainmapEncoder@@QEAAAEAV0@AEBV0@@Z
??4SkLatticeIter@@QEAAAEAV0@$$QEAV0@@Z
??4SkLatticeIter@@QEAAAEAV0@AEBV0@@Z
??4SkLine2DPathEffect@@QEAAAEAV0@$$QEAV0@@Z
??4SkLine2DPathEffect@@QEAAAEAV0@AEBV0@@Z
??4SkLumaColorFilter@@QEAAAEAU0@$$QEAU0@@Z
??4SkLumaColorFilter@@QEAAAEAU0@AEBU0@@Z
??4SkM44@@QEAAAEAV0@AEBV0@@Z
??4SkMatrix@@QEAAAEAV0@$$QEAV0@@Z
??4SkMatrix@@QEAAAEAV0@AEBV0@@Z
??4SkMesh@@QEAAAEAV0@$$QEAV0@@Z
??4SkMesh@@QEAAAEAV0@AEBV0@@Z
??4SkNoncopyable@@QEAAAEAV0@$$QEAV0@@Z
??4SkOpBuilder@@QEAAAEAV0@$$QEAV0@@Z
??4SkOpBuilder@@QEAAAEAV0@AEBV0@@Z
??4SkOverdrawColorFilter@@QEAAAEAV0@$$QEAV0@@Z
??4SkOverdrawColorFilter@@QEAAAEAV0@AEBV0@@Z
??4SkPaint@@QEAAAEAV0@$$QEAV0@@Z
??4SkPaint@@QEAAAEAV0@AEBV0@@Z
??4SkParse@@QEAAAEAV0@$$QEAV0@@Z
??4SkParse@@QEAAAEAV0@AEBV0@@Z
??4SkParsePath@@QEAAAEAV0@$$QEAV0@@Z
??4SkParsePath@@QEAAAEAV0@AEBV0@@Z
??4SkPath1DPathEffect@@QEAAAEAV0@$$QEAV0@@Z
??4SkPath1DPathEffect@@QEAAAEAV0@AEBV0@@Z
??4SkPath2DPathEffect@@QEAAAEAV0@$$QEAV0@@Z
??4SkPath2DPathEffect@@QEAAAEAV0@AEBV0@@Z
??4SkPath@@QEAAAEAV0@AEBV0@@Z
??4SkPathBuilder@@QEAAAEAV0@AEBV0@@Z
??4SkPathBuilder@@QEAAAEAV0@AEBVSkPath@@@Z
??4SkPathIter@@QEAAAEAV0@$$QEAV0@@Z
??4SkPathIter@@QEAAAEAV0@AEBV0@@Z
??4SkPathMeasure@@QEAAAEAV0@$$QEAV0@@Z
??4SkPixmap@@QEAAAEAV0@$$QEAV0@@Z
??4SkPixmap@@QEAAAEAV0@AEBV0@@Z
??4SkPoint3@@QEAAAEAU0@$$QEAU0@@Z
??4SkPoint3@@QEAAAEAU0@AEBU0@@Z
??4SkPoint@@QEAAAEAU0@$$QEAU0@@Z
??4SkPoint@@QEAAAEAU0@AEBU0@@Z
??4SkRRect@@QEAAAEAV0@AEBV0@@Z
??4SkRSXform@@QEAAAEAU0@$$QEAU0@@Z
??4SkRSXform@@QEAAAEAU0@AEBU0@@Z
??4SkRect@@QEAAAEAU0@$$QEAU0@@Z
??4SkRect@@QEAAAEAU0@AEBU0@@Z
??4SkRegion@@QEAAAEAV0@AEBV0@@Z
??4SkSVGCanvas@@QEAAAEAV0@$$QEAV0@@Z
??4SkSVGCanvas@@QEAAAEAV0@AEBV0@@Z
??4SkSamplingOptions@@QEAAAEAU0@AEBU0@@Z
??4SkSerialProcs@@QEAAAEAU0@$$QEAU0@@Z
??4SkSerialProcs@@QEAAAEAU0@AEBU0@@Z
??4SkShaderMaskFilter@@QEAAAEAV0@$$QEAV0@@Z
??4SkShaderMaskFilter@@QEAAAEAV0@AEBV0@@Z
??4SkShadowUtils@@QEAAAEAV0@$$QEAV0@@Z
??4SkShadowUtils@@QEAAAEAV0@AEBV0@@Z
??4SkString@@QEAAAEAV0@$$QEAV0@@Z
??4SkString@@QEAAAEAV0@AEBV0@@Z
??4SkString@@QEAAAEAV0@QEBD@Z
??4SkStrokeRec@@QEAAAEAV0@$$QEAV0@@Z
??4SkStrokeRec@@QEAAAEAV0@AEBV0@@Z
??4SkSurfaceProps@@QEAAAEAV0@AEBV0@@Z
??4SkTDStorage@@QEAAAEAV0@$$QEAV0@@Z
??4SkTDStorage@@QEAAAEAV0@AEBV0@@Z
??4SkTableMaskFilter@@QEAAAEAV0@$$QEAV0@@Z
??4SkTableMaskFilter@@QEAAAEAV0@AEBV0@@Z
??4SkTextBlobRunIterator@@QEAAAEAV0@$$QEAV0@@Z
??4SkTextBlobRunIterator@@QEAAAEAV0@AEBV0@@Z
??4SkTextUtils@@QEAAAEAV0@$$QEAV0@@Z
??4SkTextUtils@@QEAAAEAV0@AEBV0@@Z
??4SkTrimPathEffect@@QEAAAEAV0@$$QEAV0@@Z
??4SkTrimPathEffect@@QEAAAEAV0@AEBV0@@Z
??4SkUnPreMultiply@@QEAAAEAV0@$$QEAV0@@Z
??4SkUnPreMultiply@@QEAAAEAV0@AEBV0@@Z
??4SkV2@@QEAAAEAU0@$$QEAU0@@Z
??4SkV2@@QEAAAEAU0@AEBU0@@Z
??4SkV3@@QEAAAEAU0@$$QEAU0@@Z
??4SkV3@@QEAAAEAU0@AEBU0@@Z
??4SkV4@@QEAAAEAU0@$$QEAU0@@Z
??4SkV4@@QEAAAEAU0@AEBU0@@Z
??4SkYUVAInfo@@QEAAAEAV0@AEBV0@@Z
??4SkYUVAPixmapInfo@@QEAAAEAV0@AEBV0@@Z
??4SkYUVAPixmaps@@QEAAAEAV0@$$QEAV0@@Z
??4SkYUVAPixmaps@@QEAAAEAV0@AEBV0@@Z
??4Spanerator@SkRegion@@QEAAAEAV01@$$QEAV01@@Z
??4Spanerator@SkRegion@@QEAAAEAV01@AEBV01@@Z
??4SupportedDataTypes@SkYUVAPixmapInfo@@QEAAAEAV01@$$QEAV01@@Z
??4SupportedDataTypes@SkYUVAPixmapInfo@@QEAAAEAV01@AEBV01@@Z
??4Uniform@SkRuntimeEffect@@QEAAAEAU01@$$QEAU01@@Z
??4Uniform@SkRuntimeEffect@@QEAAAEAU01@AEBU01@@Z
??8@YA_NAEBVSkMatrix@@0@Z
??8@YA_NAEBVSkPaint@@0@Z
??8@YA_NAEBVSkPath@@0@Z
??8ContentLightLevelInformation@skhdr@@QEBA_NAEBU01@@Z
??8GrBackendFormat@@QEBA_NAEBV0@@Z
??8GrContextThreadSafeProxy@@QEBA_NAEBV0@@Z
??8GrSurfaceCharacterization@@QEBA_NAEBV0@@Z
??8GrYUVABackendTextureInfo@@QEBA_NAEBV0@@Z
??8MasteringDisplayColorVolume@skhdr@@QEBA_NAEBU01@@Z
??8Metadata@skhdr@@QEBA_NAEBV01@@Z
??8SkColorInfo@@QEBA_NAEBV0@@Z
??8SkData@@QEBA_NAEBV0@@Z
??8SkFont@@QEBA_NAEBV0@@Z
??8SkFontMetrics@@QEBA_NAEBU0@@Z
??8SkFontStyle@@QEBA_NAEBV0@@Z
??8SkImageInfo@@QEBA_NAEBU0@@Z
??8SkM44@@QEBA_NAEBV0@@Z
??8SkPathBuilder@@QEBA_NAEBV0@@Z
??8SkPathRef@@QEBA_NAEBV0@@Z
??8SkRegion@@QEBA_NAEBV0@@Z
??8SkSamplingOptions@@QEBA_NAEBU0@@Z
??8SkSurfaceProps@@QEBA_NAEBV0@@Z
??8SkV2@@QEBA_NU0@@Z
??8SkV3@@QEBA_NAEBU0@@Z
??8SkV4@@QEBA_NAEBU0@@Z
??8SkYUVAInfo@@QEBA_NAEBV0@@Z
??8SkYUVAPixmapInfo@@QEBA_NAEBV0@@Z
??9@YA_NAEBVSkMatrix@@0@Z
??9ContentLightLevelInformation@skhdr@@QEBA_NAEBU01@@Z
??9GrBackendFormat@@QEBA_NAEBV0@@Z
??9GrContextThreadSafeProxy@@QEBA_NAEBV0@@Z
??9GrSurfaceCharacterization@@QEBA_NAEBV0@@Z
??9GrYUVABackendTextureInfo@@QEBA_NAEBV0@@Z
??9MasteringDisplayColorVolume@skhdr@@QEBA_NAEBU01@@Z
??9Metadata@skhdr@@QEBA_NAEBV01@@Z
??9SkColorInfo@@QEBA_NAEBV0@@Z
??9SkData@@QEBA_NAEBV0@@Z
??9SkFont@@QEBA_NAEBV0@@Z
??9SkImageInfo@@QEBA_NAEBU0@@Z
??9SkM44@@QEBA_NAEBV0@@Z
??9SkPathBuilder@@QEBA_NAEBV0@@Z
??9SkRegion@@QEBA_NAEBV0@@Z
??9SkSamplingOptions@@QEBA_NAEBU0@@Z
??9SkSurfaceProps@@QEBA_NAEBV0@@Z
??9SkV2@@QEBA_NU0@@Z
??9SkV3@@QEBA_NAEBU0@@Z
??9SkV4@@QEBA_NAEBU0@@Z
??9SkYUVAInfo@@QEBA_NAEBV0@@Z
??9SkYUVAPixmapInfo@@QEBA_NAEBV0@@Z
??ASkMatrix@@QEAAAEAMH@Z
??ASkMatrix@@QEBAMH@Z
??ASkString@@QEAAAEAD_K@Z
??ASkString@@QEBAD_K@Z
??ASkV4@@QEAAAEAMH@Z
??ASkV4@@QEBAMH@Z
??DSkM44@@QEBA?AUSkV3@@U1@@Z
??DSkM44@@QEBA?AUSkV4@@AEBU1@@Z
??DSkPoint@@QEBA?AU0@M@Z
??DSkV2@@QEBA?AU0@U0@@Z
??DSkV3@@QEBA?AU0@AEBU0@@Z
??DSkV4@@QEBA?AU0@AEBU0@@Z
??GSkPoint3@@QEBA?AU0@XZ
??GSkPoint@@QEBA?AU0@XZ
??GSkV2@@QEBA?AU0@U0@@Z
??GSkV2@@QEBA?AU0@XZ
??GSkV3@@QEBA?AU0@AEBU0@@Z
??GSkV3@@QEBA?AU0@XZ
??GSkV4@@QEBA?AU0@AEBU0@@Z
??GSkV4@@QEBA?AU0@XZ
??HSkV2@@QEBA?AU0@U0@@Z
??HSkV3@@QEBA?AU0@AEBU0@@Z
??HSkV4@@QEBA?AU0@AEBU0@@Z
??RSkRTreeFactory@@UEBA?AV?$sk_sp@VSkBBoxHierarchy@@@@XZ
??XSkPoint@@QEAAAEAU0@M@Z
??XSkV2@@QEAAXM@Z
??XSkV2@@QEAAXU0@@Z
??XSkV3@@QEAAXM@Z
??XSkV3@@QEAAXU0@@Z
??YSkPoint3@@QEAAXAEBU0@@Z
??YSkPoint@@QEAAXAEBU0@@Z
??YSkString@@QEAAAEAV0@AEBV0@@Z
??YSkString@@QEAAAEAV0@D@Z
??YSkString@@QEAAAEAV0@QEBD@Z
??YSkV2@@QEAAXU0@@Z
??YSkV3@@QEAAXU0@@Z
??ZSkPoint3@@QEAAXAEBU0@@Z
??ZSkPoint@@QEAAXAEBU0@@Z
??ZSkV2@@QEAAXU0@@Z
??ZSkV3@@QEAAXU0@@Z
??_0SkV2@@QEAAXM@Z
??_7?$SkCanvasVirtualEnforcer@VSkCanvas@@@@6B@
??_7?$SkCanvasVirtualEnforcer@VSkNWayCanvas@@@@6B@
??_7?$SkCanvasVirtualEnforcer@VSkNoDrawCanvas@@@@6B@
??_7AbortCallback@SkPicture@@6B@
??_7Agtm@skhdr@@6B@
??_7Allocator@SkBitmap@@6B@
??_7GrContextThreadSafeProxy@@6B@
??_7GrDirectContext@@6B@
??_7GrExternalTextureGenerator@@6B@
??_7GrTextureGenerator@@6B@
??_7HeapAllocator@SkBitmap@@6B@
??_7MutableTextureState@skgpu@@6B@
??_7PersistentCache@GrContextOptions@@6B@
??_7Recorder@skcpu@@6B@
??_7ShaderErrorHandler@skgpu@@6B@
??_7SkAndroidCodec@@6B@
??_7SkAnimatedImage@@6B@
??_7SkBBHFactory@@6B@
??_7SkBlender@@6B@
??_7SkCanvas@@6B@
??_7SkCapabilities@@6B@
??_7SkCodec@@6B@
??_7SkColorFilter@@6B@
??_7SkColorTable@@6B@
??_7SkContourMeasure@@6B@
??_7SkDataTable@@6B@
??_7SkDiscardableMemory@@6B@
??_7SkDocument@@6B@
??_7SkDrawable@@6B@
??_7SkDynamicMemoryWStream@@6B@
??_7SkEncoder@@6B@
??_7SkEventTracer@@6B@
??_7SkExecutor@@6B@
??_7SkFILEStream@@6B@
??_7SkFILEWStream@@6B@
??_7SkFlattenable@@6B@
??_7SkFontMgr@@6B@
??_7SkFontStyleSet@@6B@
??_7SkImage@@6B@
??_7SkImageFilter@@6B@
??_7SkImageGenerator@@6B@
??_7SkJpegMetadataDecoder@@6B@
??_7SkMaskFilter@@6B@
??_7SkMemoryStream@@6B@
??_7SkNWayCanvas@@6B@
??_7SkNoDrawCanvas@@6B@
??_7SkNullWStream@@6B@
??_7SkOrderedFontMgr@@6B@
??_7SkOverdrawCanvas@@6B@
??_7SkPaintFilterCanvas@@6B@
??_7SkPathEffect@@6B@
??_7SkPicture@@6B@
??_7SkPixelRef@@6B@
??_7SkRTreeFactory@@6B@
??_7SkRasterHandleAllocator@@6B@
??_7SkRecorder@@6B@
??_7SkRefCnt@@6B@
??_7SkRefCntBase@@6B@
??_7SkRuntimeEffect@@6B@
??_7SkShader@@6B@
??_7SkStream@@6B@
??_7SkStreamAsset@@6B@
??_7SkStreamMemory@@6B@
??_7SkStreamRewindable@@6B@
??_7SkStreamSeekable@@6B@
??_7SkSurface@@6B@
??_7SkTraceMemoryDump@@6B@
??_7SkTypeface@@6B@
??_7SkWStream@@6B@
??_7SkWeakRefCnt@@6B@
??_7SkXmp@@6B@
??_7Slug@gpu@sktext@@6B@
??_FSkFILEStream@@QEAAXXZ
??_FSkPathRef@@AEAAXXZ
?AddDeserialProcs@Slug@gpu@sktext@@SAXPEAUSkDeserialProcs@@PEBVSkStrikeClient@@@Z
?AdoptTextureFrom@SkImages@@YA?AV?$sk_sp@VSkImage@@@@PEAVGrRecordingContext@@AEBVGrBackendTexture@@W4GrSurfaceOrigin@@W4SkColorType@@@Z
?AdoptTextureFrom@SkImages@@YA?AV?$sk_sp@VSkImage@@@@PEAVGrRecordingContext@@AEBVGrBackendTexture@@W4GrSurfaceOrigin@@W4SkColorType@@W4SkAlphaType@@@Z
?AdoptTextureFrom@SkImages@@YA?AV?$sk_sp@VSkImage@@@@PEAVGrRecordingContext@@AEBVGrBackendTexture@@W4GrSurfaceOrigin@@W4SkColorType@@W4SkAlphaType@@V?$sk_sp@VSkColorSpace@@@@@Z
?Affine_vpts@SkMatrix@@CAXAEBV1@QEAUSkPoint@@QEBU2@H@Z
?All@SupportedDataTypes@SkYUVAPixmapInfo@@SA?AV12@XZ
?Allocate@SkYUVAPixmaps@@SA?AV1@AEBVSkYUVAPixmapInfo@@@Z
?Aniso@SkSamplingOptions@@SA?AU1@H@Z
?ApplyScale@SkUnPreMultiply@@SAIII@Z
?AreRectAndRadiiValid@SkRRect@@CA_NAEBUSkRect@@QEBUSkPoint@@@Z
?Arithmetic@SkBlenders@@SA?AV?$sk_sp@VSkBlender@@@@MMMM_N@Z
?Arithmetic@SkImageFilters@@SA?AV?$sk_sp@VSkImageFilter@@@@MMMM_NV2@1AEBUCropRect@1@@Z
?AsWinding@@YA?AV?$optional@VSkPath@@@std@@AEBVSkPath@@@Z
?BL@SkRect@@QEBA?AUSkPoint@@XZ
?BR@SkRect@@QEBA?AUSkPoint@@XZ
?Blend@SkColorFilters@@SA?AV?$sk_sp@VSkColorFilter@@@@AEBU?$SkRGBA4f@$02@@V?$sk_sp@VSkColorSpace@@@@W4SkBlendMode@@@Z
?Blend@SkColorFilters@@SA?AV?$sk_sp@VSkColorFilter@@@@IW4SkBlendMode@@@Z
?Blend@SkImageFilters@@SA?AV?$sk_sp@VSkImageFilter@@@@V?$sk_sp@VSkBlender@@@@V2@1AEBUCropRect@1@@Z
?Blend@SkImageFilters@@SA?AV?$sk_sp@VSkImageFilter@@@@W4SkBlendMode@@V2@1AEBUCropRect@1@@Z
?Blend@SkShaders@@YA?AV?$sk_sp@VSkShader@@@@V?$sk_sp@VSkBlender@@@@V2@1@Z
?Blend@SkShaders@@YA?AV?$sk_sp@VSkShader@@@@W4SkBlendMode@@V2@1@Z
?Blur@SkImageFilters@@SA?AV?$sk_sp@VSkImageFilter@@@@MMV2@AEBUCropRect@1@@Z
?Blur@SkImageFilters@@SA?AV?$sk_sp@VSkImageFilter@@@@MMW4SkTileMode@@V2@AEBUCropRect@1@@Z
?Bold@SkFontStyle@@SA?AV1@XZ
?BoldItalic@SkFontStyle@@SA?AV1@XZ
?BorrowTextureFrom@SkImages@@YA?AV?$sk_sp@VSkImage@@@@PEAVGrRecordingContext@@AEBVGrBackendTexture@@W4GrSurfaceOrigin@@W4SkColorType@@W4SkAlphaType@@V?$sk_sp@VSkColorSpace@@@@P6AXPEAX@Z6@Z
?Bounds@SkRect@@SA?AV?$optional@USkRect@@@std@@V?$SkSpan@$$CBUSkPoint@@@@@Z
?BoundsOrEmpty@SkRect@@SA?AU1@V?$SkSpan@$$CBUSkPoint@@@@@Z
?BufferIsSKP@SkPicture@@CA_NPEAVSkReadBuffer@@PEAUSkPictInfo@@@Z
?BuildRectRuns@SkRegion@@CAXAEBUSkIRect@@QEAH@Z
?ByteSizeOverflowed@SkImageInfo@@SA_N_K@Z
?CaptureCanvasState@SkCanvasStateUtils@@SAPEAVSkCanvasState@@PEAVSkCanvas@@@Z
?Circle@SkPath@@SA?AV1@MMMW4SkPathDirection@@@Z
?ColMajor@SkM44@@SA?AV1@QEBM@Z
?Color@SkShaders@@YA?AV?$sk_sp@VSkShader@@@@AEBU?$SkRGBA4f@$02@@V?$sk_sp@VSkColorSpace@@@@@Z
?Color@SkShaders@@YA?AV?$sk_sp@VSkShader@@@@I@Z
?ColorFilter@SkImageFilters@@SA?AV?$sk_sp@VSkImageFilter@@@@V?$sk_sp@VSkColorFilter@@@@V2@AEBUCropRect@1@@Z
?Cols@SkM44@@SA?AV1@AEBUSkV4@@000@Z
?Compose@SkColorFilters@@SA?AV?$sk_sp@VSkColorFilter@@@@AEBV2@V2@@Z
?Compose@SkImageFilters@@SA?AV?$sk_sp@VSkImageFilter@@@@V2@0@Z
?ComputeInv@SkMatrix@@CAXQEAMQEBMN_N@Z
?ComputeIsOpaque@SkBitmap@@SA_NAEBV1@@Z
?ComputePtBounds@SkPathRef@@CA_NPEAUSkRect@@AEBV1@@Z
?ComputeTonalColors@SkShadowUtils@@SAXIIPEAI0@Z
?Concat@SkMatrix@@SA?AV1@AEBV1@0@Z
?ConservativeRunBounds@SkTextBlobBuilder@@CA?AUSkRect@@AEBVRunRecord@SkTextBlob@@@Z
?ConvertBlob@Slug@gpu@sktext@@SA?AV?$sk_sp@VSlug@gpu@sktext@@@@PEAVSkCanvas@@AEBVSkTextBlob@@USkPoint@@AEBVSkPaint@@@Z
?ConvertConicToQuads@SkPath@@SAHAEBUSkPoint@@00MQEAU2@H@Z
?ConvertRadiusToSigma@SkBlurMask@@SAMM@Z
?ConvertSigmaToRadius@SkBlurMask@@SAMM@Z
?CoordClamp@SkShaders@@YA?AV?$sk_sp@VSkShader@@@@V2@AEBUSkRect@@@Z
?CopyIndexBuffer@SkMeshes@@YA?AV?$sk_sp@VIndexBuffer@SkMesh@@@@AEBV2@@Z
?CopyIndexBuffer@SkMeshes@@YA?AV?$sk_sp@VIndexBuffer@SkMesh@@@@PEAVGrDirectContext@@V2@@Z
?CopyVertexBuffer@SkMeshes@@YA?AV?$sk_sp@VVertexBuffer@SkMesh@@@@AEBV2@@Z
?CopyVertexBuffer@SkMeshes@@YA?AV?$sk_sp@VVertexBuffer@SkMesh@@@@PEAVGrDirectContext@@V2@@Z
?Count@SkParse@@SAHQEBD@Z
?Count@SkParse@@SAHQEBDD@Z
?CountUTF16@SkUTF@@YAHPEBG_K@Z
?CountUTF32@SkUTF@@YAHPEBH_K@Z
?CountUTF8@SkUTF@@YAHPEBD_K@Z
?Create@SkDiscardableMemory@@SAPEAV1@_K@Z
?Create@SkTableMaskFilter@@SAPEAVSkMaskFilter@@QEBE@Z
?CreateClip@SkTableMaskFilter@@SAPEAVSkMaskFilter@@EE@Z
?CreateEmpty@SkFontStyleSet@@SA?AV?$sk_sp@VSkFontStyleSet@@@@XZ
?CreateEmpty@SkPathRef@@SAPEAV1@XZ
?CreateGamma@SkTableMaskFilter@@SAPEAVSkMaskFilter@@M@Z
?CreateTransformedCopy@SkPathRef@@SAXPEAV?$sk_sp@VSkPathRef@@@@AEBV1@AEBVSkMatrix@@@Z
?Crop@SkImageFilters@@SA?AV?$sk_sp@VSkImageFilter@@@@AEBUSkRect@@V2@@Z
?Crop@SkImageFilters@@SA?AV?$sk_sp@VSkImageFilter@@@@AEBUSkRect@@W4SkTileMode@@V2@@Z
?Cross@SkV2@@SAMU1@0@Z
?Cross@SkV3@@SA?AU1@AEBU1@0@Z
?CrossContextTextureFromPixmap@SkImages@@YA?AV?$sk_sp@VSkImage@@@@PEAVGrDirectContext@@AEBVSkPixmap@@_N2@Z
?CrossProduct@SkPoint3@@SA?AU1@AEBU1@0@Z
?CrossProduct@SkPoint@@SAMAEBU1@0@Z
?Decode@SkBmpDecoder@@YA?AV?$unique_ptr@VSkCodec@@U?$default_delete@VSkCodec@@@std@@@std@@V?$sk_sp@$$CBVSkData@@@@PEAW4Result@SkCodec@@PEAX@Z
?Decode@SkBmpDecoder@@YA?AV?$unique_ptr@VSkCodec@@U?$default_delete@VSkCodec@@@std@@@std@@V?$unique_ptr@VSkStream@@U?$default_delete@VSkStream@@@std@@@3@PEAW4Result@SkCodec@@PEAX@Z
?Decode@SkGifDecoder@@YA?AV?$unique_ptr@VSkCodec@@U?$default_delete@VSkCodec@@@std@@@std@@V?$sk_sp@$$CBVSkData@@@@PEAW4Result@SkCodec@@PEAX@Z
?Decode@SkGifDecoder@@YA?AV?$unique_ptr@VSkCodec@@U?$default_delete@VSkCodec@@@std@@@std@@V?$unique_ptr@VSkStream@@U?$default_delete@VSkStream@@@std@@@3@PEAW4Result@SkCodec@@PEAX@Z
?Decode@SkIcoDecoder@@YA?AV?$unique_ptr@VSkCodec@@U?$default_delete@VSkCodec@@@std@@@std@@V?$sk_sp@$$CBVSkData@@@@PEAW4Result@SkCodec@@PEAX@Z
?Decode@SkIcoDecoder@@YA?AV?$unique_ptr@VSkCodec@@U?$default_delete@VSkCodec@@@std@@@std@@V?$unique_ptr@VSkStream@@U?$default_delete@VSkStream@@@std@@@3@PEAW4Result@SkCodec@@PEAX@Z
?Decode@SkJpegDecoder@@YA?AV?$unique_ptr@VSkCodec@@U?$default_delete@VSkCodec@@@std@@@std@@V?$sk_sp@$$CBVSkData@@@@PEAW4Result@SkCodec@@PEAX@Z
?Decode@SkJpegDecoder@@YA?AV?$unique_ptr@VSkCodec@@U?$default_delete@VSkCodec@@@std@@@std@@V?$unique_ptr@VSkStream@@U?$default_delete@VSkStream@@@std@@@3@PEAW4Result@SkCodec@@PEAX@Z
?Decode@SkPngDecoder@@YA?AV?$unique_ptr@VSkCodec@@U?$default_delete@VSkCodec@@@std@@@std@@V?$sk_sp@$$CBVSkData@@@@PEAW4Result@SkCodec@@PEAX@Z
?Decode@SkPngDecoder@@YA?AV?$unique_ptr@VSkCodec@@U?$default_delete@VSkCodec@@@std@@@std@@V?$unique_ptr@VSkStream@@U?$default_delete@VSkStream@@@std@@@3@PEAW4Result@SkCodec@@PEAX@Z
?Decode@SkWbmpDecoder@@YA?AV?$unique_ptr@VSkCodec@@U?$default_delete@VSkCodec@@@std@@@std@@V?$sk_sp@$$CBVSkData@@@@PEAW4Result@SkCodec@@PEAX@Z
?Decode@SkWbmpDecoder@@YA?AV?$unique_ptr@VSkCodec@@U?$default_delete@VSkCodec@@@std@@@std@@V?$unique_ptr@VSkStream@@U?$default_delete@VSkStream@@@std@@@3@PEAW4Result@SkCodec@@PEAX@Z
?DefaultColorTypeForDataType@SkYUVAPixmapInfo@@SA?AW4SkColorType@@W4DataType@1@H@Z
?DeferredFromEncodedData@SkImages@@YA?AV?$sk_sp@VSkImage@@@@V?$sk_sp@$$CBVSkData@@@@V?$optional@W4SkAlphaType@@@std@@@Z
?DeferredFromGenerator@SkImages@@YA?AV?$sk_sp@VSkImage@@@@V?$unique_ptr@VSkImageGenerator@@U?$default_delete@VSkImageGenerator@@@std@@@std@@@Z
?DeferredFromPicture@SkImages@@YA?AV?$sk_sp@VSkImage@@@@V?$sk_sp@VSkPicture@@@@AEBUSkISize@@PEBVSkMatrix@@PEBVSkPaint@@W4BitDepth@1@V?$sk_sp@VSkColorSpace@@@@@Z
?DeferredFromPicture@SkImages@@YA?AV?$sk_sp@VSkImage@@@@V?$sk_sp@VSkPicture@@@@AEBUSkISize@@PEBVSkMatrix@@PEBVSkPaint@@W4BitDepth@1@V?$sk_sp@VSkColorSpace@@@@VSkSurfaceProps@@@Z
?DeferredImage@SkCodecs@@YA?AV?$sk_sp@VSkImage@@@@V?$unique_ptr@VSkCodec@@U?$default_delete@VSkCodec@@@std@@@std@@V?$optional@W4SkAlphaType@@@4@@Z
?Deserialize@SkColorFilter@@SA?AV?$sk_sp@VSkColorFilter@@@@PEBX_KPEBUSkDeserialProcs@@@Z
?Deserialize@SkColorSpace@@SA?AV?$sk_sp@VSkColorSpace@@@@PEBX_K@Z
?Deserialize@SkColorTable@@SA?AV?$sk_sp@VSkColorTable@@@@AEAVSkReadBuffer@@@Z
?Deserialize@SkCustomTypefaceBuilder@@CA?AV?$sk_sp@VSkTypeface@@@@PEAVSkStream@@@Z
?Deserialize@SkDrawable@@SA?AV?$sk_sp@VSkDrawable@@@@PEBX_KPEBUSkDeserialProcs@@@Z
?Deserialize@SkFlattenable@@SA?AV?$sk_sp@VSkFlattenable@@@@W4Type@1@PEBX_KPEBUSkDeserialProcs@@@Z
?Deserialize@SkImageFilter@@SA?AV?$sk_sp@VSkImageFilter@@@@PEBX_KPEBUSkDeserialProcs@@@Z
?Deserialize@SkMaskFilter@@SA?AV?$sk_sp@VSkMaskFilter@@@@PEBX_KPEBUSkDeserialProcs@@@Z
?Deserialize@SkPathEffect@@SA?AV?$sk_sp@VSkPathEffect@@@@PEBX_KPEBUSkDeserialProcs@@@Z
?Deserialize@SkTextBlob@@SA?AV?$sk_sp@VSkTextBlob@@@@PEBX_KAEBUSkDeserialProcs@@@Z
?Deserialize@Slug@gpu@sktext@@SA?AV?$sk_sp@VSlug@gpu@sktext@@@@PEBX_KPEBVSkStrikeClient@@@Z
?Dilate@SkImageFilters@@SA?AV?$sk_sp@VSkImageFilter@@@@MMV2@AEBUCropRect@1@@Z
?DisplacementMap@SkImageFilters@@SA?AV?$sk_sp@VSkImageFilter@@@@W4SkColorChannel@@0MV2@1AEBUCropRect@1@@Z
?Distance@SkPoint@@SAMAEBU1@0@Z
?DistantLitDiffuse@SkImageFilters@@SA?AV?$sk_sp@VSkImageFilter@@@@AEBUSkPoint3@@IMMV2@AEBUCropRect@1@@Z
?DistantLitSpecular@SkImageFilters@@SA?AV?$sk_sp@VSkImageFilter@@@@AEBUSkPoint3@@IMMMV2@AEBUCropRect@1@@Z
?Dot@SkV2@@SAMU1@0@Z
?Dot@SkV3@@SAMAEBU1@0@Z
?Dot@SkV4@@SAMAEBU1@0@Z
?DotProduct@SkPoint3@@SAMAEBU1@0@Z
?DotProduct@SkPoint@@SAMAEBU1@0@Z
?Draw@SkTextUtils@@SAXPEAVSkCanvas@@PEBX_KW4SkTextEncoding@@MMAEBVSkFont@@AEBVSkPaint@@W4Align@1@@Z
?DrawDDL@ganesh@skgpu@@YA_NPEAVSkSurface@@V?$sk_sp@$$CBVGrDeferredDisplayList@@@@@Z
?DrawDDL@ganesh@skgpu@@YA_NV?$sk_sp@VSkSurface@@@@V?$sk_sp@$$CBVGrDeferredDisplayList@@@@@Z
?DrawImageRect@SkTiledImageUtils@@YAXPEAVSkCanvas@@PEBVSkImage@@AEBUSkRect@@2AEBUSkSamplingOptions@@PEBVSkPaint@@W4SrcRectConstraint@2@@Z
?DrawShadow@SkShadowUtils@@SAXPEAVSkCanvas@@AEBVSkPath@@AEBUSkPoint3@@2MIII@Z
?DrawString@SkTextUtils@@SAXPEAVSkCanvas@@QEBDMMAEBVSkFont@@AEBVSkPaint@@W4Align@1@@Z
?DropShadow@SkImageFilters@@SA?AV?$sk_sp@VSkImageFilter@@@@MMMMIV2@AEBUCropRect@1@@Z
?DropShadow@SkImageFilters@@SA?AV?$sk_sp@VSkImageFilter@@@@MMMMU?$SkRGBA4f@$02@@V?$sk_sp@VSkColorSpace@@@@V2@AEBUCropRect@1@@Z
?DropShadowOnly@SkImageFilters@@SA?AV?$sk_sp@VSkImageFilter@@@@MMMMIV2@AEBUCropRect@1@@Z
?DropShadowOnly@SkImageFilters@@SA?AV?$sk_sp@VSkImageFilter@@@@MMMMU?$SkRGBA4f@$02@@V?$sk_sp@VSkColorSpace@@@@V2@AEBUCropRect@1@@Z
?DumpMemoryStatistics@SkGraphics@@SAXPEAVSkTraceMemoryDump@@@Z
?Empty@SkImageFilters@@SA?AV?$sk_sp@VSkImageFilter@@@@XZ
?Empty@SkShaders@@YA?AV?$sk_sp@VSkShader@@@@XZ
?EnableInliner@Compiler@SkSL@@SAXW4OverrideFlag@12@@Z
?EnableOptimizer@Compiler@SkSL@@SAXW4OverrideFlag@12@@Z
?Encode@SkJpegEncoder@@YA?AV?$sk_sp@VSkData@@@@AEBVSkPixmap@@AEBUOptions@1@@Z
?Encode@SkJpegEncoder@@YA?AV?$sk_sp@VSkData@@@@PEAVGrDirectContext@@PEBVSkImage@@AEBUOptions@1@@Z
?Encode@SkJpegEncoder@@YA_NPEAVSkWStream@@AEBVSkPixmap@@AEBUOptions@1@@Z
?Encode@SkJpegEncoder@@YA_NPEAVSkWStream@@AEBVSkYUVAPixmaps@@PEBVSkColorSpace@@AEBUOptions@1@@Z
?Encode@SkPngEncoder@@YA?AV?$sk_sp@VSkData@@@@AEBVSkPixmap@@AEBUOptions@1@@Z
?Encode@SkPngEncoder@@YA?AV?$sk_sp@VSkData@@@@PEAVGrDirectContext@@PEBVSkImage@@AEBUOptions@1@@Z
?Encode@SkPngEncoder@@YA_NPEAVSkWStream@@AEBVSkPixmap@@AEBUOptions@1@@Z
?EncodeHDRGM@SkJpegGainmapEncoder@@SA_NPEAVSkWStream@@AEBVSkPixmap@@AEBUOptions@SkJpegEncoder@@12AEBUSkGainmapInfo@@@Z
?Equal@SkTypeface@@SA_NPEBV1@0@Z
?Equals@SkColorSpace@@SA_NPEBV1@0@Z
?Equals@SkData@@SA_NPEBV1@0@Z
?Erode@SkImageFilters@@SA?AV?$sk_sp@VSkImageFilter@@@@MMV2@AEBUCropRect@1@@Z
?FRAGCOLOR_NAME@Compiler@SkSL@@2QBDB
?FactoryId@SkCustomTypefaceBuilder@@2IB
?FactoryToName@SkFlattenable@@SAPEBDP6A?AV?$sk_sp@VSkFlattenable@@@@AEAVSkReadBuffer@@@Z@Z
?FillPathWithPaint@skpathutils@@YA?AVSkPath@@AEBV2@AEBVSkPaint@@PEA_N@Z
?FillPathWithPaint@skpathutils@@YA_NAEBVSkPath@@AEBVSkPaint@@PEAV2@@Z
?FillPathWithPaint@skpathutils@@YA_NAEBVSkPath@@AEBVSkPaint@@PEAV2@PEBUSkRect@@AEBVSkMatrix@@@Z
?FillPathWithPaint@skpathutils@@YA_NAEBVSkPath@@AEBVSkPaint@@PEAV2@PEBUSkRect@@M@Z
?FillPathWithPaint@skpathutils@@YA_NAEBVSkPath@@AEBVSkPaint@@PEAVSkPathBuilder@@@Z
?FillPathWithPaint@skpathutils@@YA_NAEBVSkPath@@AEBVSkPaint@@PEAVSkPathBuilder@@PEBUSkRect@@AEBVSkMatrix@@@Z
?Finalize@SkFlattenable@@CAXXZ
?FinalizeSettings@Compiler@SkSL@@CAXPEAUProgramSettings@2@W4ProgramKind@2@@Z
?FindBool@SkParse@@SA_NQEBDPEA_N@Z
?FindColor@SkParse@@SAPEBDQEBDPEAI@Z
?FindHex@SkParse@@SAPEBDQEBDPEAI@Z
?FindList@SkParse@@SAHQEBD0@Z
?FindNamedColor@SkParse@@SAPEBDQEBD_KPEAI@Z
?FindS32@SkParse@@SAPEBDQEBDPEAH@Z
?FindScalar@SkParse@@SAPEBDQEBDPEAM@Z
?FindScalars@SkParse@@SAPEBDQEBDQEAMH@Z
?FixWinding@SkOpBuilder@@CA_NPEAVSkPath@@@Z
?Flush@ganesh@skgpu@@YA?AW4GrSemaphoresSubmitted@@PEAVSkSurface@@@Z
?Flush@ganesh@skgpu@@YA?AW4GrSemaphoresSubmitted@@V?$sk_sp@VSkSurface@@@@@Z
?FlushAndSubmit@ganesh@skgpu@@YAXPEAVSkSurface@@@Z
?FlushAndSubmit@ganesh@skgpu@@YAXV?$sk_sp@VSkSurface@@@@@Z
?Forwardport@SkPicture@@CA?AV?$sk_sp@VSkPicture@@@@AEBUSkPictInfo@@PEBVSkPictureData@@PEAVSkReadBuffer@@@Z
?FromBytes_RGBA@?$SkRGBA4f@$02@@SA?AU1@I@Z
?FromColor@?$SkRGBA4f@$02@@SA?AU1@I@Z
?FromData@SkYUVAPixmaps@@SA?AV1@AEBVSkYUVAPixmapInfo@@V?$sk_sp@VSkData@@@@@Z
?FromExternalMemory@SkYUVAPixmaps@@SA?AV1@AEBVSkYUVAPixmapInfo@@PEAX@Z
?FromExternalPixmaps@SkYUVAPixmaps@@SA?AV1@AEBVSkYUVAInfo@@QEBVSkPixmap@@@Z
?FromSVGString@SkParsePath@@SA?AV?$optional@VSkPath@@@std@@QEBD@Z
?FromSVGString@SkParsePath@@SA_NQEBDPEAVSkPath@@@Z
?GetBackendRenderTarget@SkSurfaces@@YA?AVGrBackendRenderTarget@@PEAVSkSurface@@W4BackendHandleAccess@3@@Z
?GetBackendTexture@SkSurfaces@@YA?AVGrBackendTexture@@PEAVSkSurface@@W4BackendHandleAccess@3@@Z
?GetBackendTextureFromImage@SkImages@@YA_NPEBVSkImage@@PEAVGrBackendTexture@@_NPEAW4GrSurfaceOrigin@@@Z
?GetContext@SkImages@@YAPEAVGrDirectContext@@PEBVSkImage@@@Z
?GetDefault@SkExecutor@@SAAEAV1@XZ
?GetFlattenableType@SkDrawable@@SA?AW4Type@SkFlattenable@@XZ
?GetFlattenableType@SkPathEffect@@SA?AW4Type@SkFlattenable@@XZ
?GetFontCacheCountLimit@SkGraphics@@SAHXZ
?GetFontCacheCountUsed@SkGraphics@@SAHXZ
?GetFontCacheLimit@SkGraphics@@SA_KXZ
?GetFontCacheUsed@SkGraphics@@SA_KXZ
?GetImageKeyValues@SkTiledImageUtils@@YAXPEBVSkImage@@QEAI@Z
?GetInflationRadius@SkStrokeRec@@SAMAEBVSkPaint@@W4Style@2@@Z
?GetInflationRadius@SkStrokeRec@@SAMW4Join@SkPaint@@MW4Cap@3@M@Z
?GetInstance@SkEventTracer@@SAPEAV1@XZ
?GetLocalBounds@SkShadowUtils@@SA_NAEBVSkMatrix@@AEBVSkPath@@AEBUSkPoint3@@2MIPEAUSkRect@@@Z
?GetMapPtsProc@SkMatrix@@CAP6AXAEBV1@QEAUSkPoint@@QEBU2@H@ZW4TypeMask@1@@Z
?GetOpenTypeSVGDecoderFactory@SkGraphics@@SAP6A?AV?$unique_ptr@VSkOpenTypeSVGDecoder@@U?$default_delete@VSkOpenTypeSVGDecoder@@@std@@@std@@PEBE_K@ZXZ
?GetPath@SkTextUtils@@SAXPEBX_KW4SkTextEncoding@@MMAEBVSkFont@@PEAVSkPath@@@Z
?GetRTAdjustVector@Compiler@SkSL@@SA?AV?$array@M$03@std@@USkISize@@_N@Z
?GetRTFlipVector@Compiler@SkSL@@SA?AV?$array@M$01@std@@H_N@Z
?GetResourceCacheSingleAllocationByteLimit@SkGraphics@@SA_KXZ
?GetResourceCacheTotalByteLimit@SkGraphics@@SA_KXZ
?GetResourceCacheTotalBytesUsed@SkGraphics@@SA_KXZ
?GetScale@SkUnPreMultiply@@SAII@Z
?GetScaleTable@SkUnPreMultiply@@SAPEBIXZ
?GetTypefaceCacheCountLimit@SkGraphics@@SAHXZ
?GetYUVALocations@SkYUVAInfo@@SA?AV?$array@UYUVALocation@SkYUVAInfo@@$03@std@@W4PlaneConfig@1@PEBI@Z
?HSLAMatrix@SkColorFilters@@SA?AV?$sk_sp@VSkColorFilter@@@@AEBVSkColorMatrix@@@Z
?HSLAMatrix@SkColorFilters@@SA?AV?$sk_sp@VSkColorFilter@@@@QEBM@Z
?HasAlpha@SkYUVAInfo@@SA_NW4PlaneConfig@1@@Z
?Hash32@SkChecksum@@YAIPEBX_KI@Z
?Hash64@SkChecksum@@YA_KPEBX_K1@Z
?I@SkMatrix@@SAAEBV1@XZ
?Identity_pts@SkMatrix@@CAXAEBV1@QEAUSkPoint@@QEBU2@H@Z
?Image@SkImageFilters@@SA?AV?$sk_sp@VSkImageFilter@@@@V?$sk_sp@VSkImage@@@@AEBUSkRect@@1AEBUSkSamplingOptions@@@Z
?Image@SkImageFilters@@SA?AV?$sk_sp@VSkImageFilter@@@@V?$sk_sp@VSkImage@@@@AEBUSkSamplingOptions@@@Z
?Image@SkShaders@@YA?AV?$sk_sp@VSkShader@@@@V?$sk_sp@VSkImage@@@@W4SkTileMode@@1AEBUSkSamplingOptions@@PEBVSkMatrix@@@Z
?Init@SkGraphics@@SAXXZ
?Initialize@ScopedTracer@skia_private@@QEAAXPEBEPEBD_K@Z
?Intersects@SkIRect@@SA_NAEBU1@0@Z
?Intersects@SkRect@@CA_NMMMMMMMM@Z
?Intersects@SkRect@@SA_NAEBU1@0@Z
?InvalidMatrix@SkMatrix@@SAAEBV1@XZ
?IsBmp@SkBmpDecoder@@YA_NPEBX_K@Z
?IsCubicDegenerate@SkPath@@SA_NAEBUSkPoint@@000_N@Z
?IsGif@SkGifDecoder@@YA_NPEBX_K@Z
?IsIco@SkIcoDecoder@@YA_NPEBX_K@Z
?IsJpeg@SkJpegDecoder@@YA_NPEBX_K@Z
?IsLineDegenerate@SkPath@@SA_NAEBUSkPoint@@0_N@Z
?IsLinear@SkCubicMap@@SA_NUSkPoint@@0@Z
?IsPng@SkPngDecoder@@YA_NPEBX_K@Z
?IsQuadDegenerate@SkPath@@SA_NAEBUSkPoint@@00_N@Z
?IsValidPictInfo@SkPicture@@CA_NAEBUSkPictInfo@@@Z
?IsWbmp@SkWbmpDecoder@@YA_NPEBX_K@Z
?Italic@SkFontStyle@@SA?AV1@XZ
?Length@SkPoint3@@SAMMMM@Z
?Length@SkPoint@@SAMMM@Z
?Lerp@SkColorFilters@@SA?AV?$sk_sp@VSkColorFilter@@@@MV2@0@Z
?Lighting@SkColorFilters@@SA?AV?$sk_sp@VSkColorFilter@@@@II@Z
?Line@SkPath@@SA?AV1@USkPoint@@0@Z
?LinearToSRGBGamma@SkColorFilters@@SA?AV?$sk_sp@VSkColorFilter@@@@XZ
?LookAt@SkM44@@SA?AV1@AEBUSkV3@@00@Z
?Magnifier@SkImageFilters@@SA?AV?$sk_sp@VSkImageFilter@@@@AEBUSkRect@@MMAEBUSkSamplingOptions@@V2@AEBUCropRect@1@@Z
?Make@Agtm@skhdr@@SA?AV?$unique_ptr@VAgtm@skhdr@@U?$default_delete@VAgtm@skhdr@@@std@@@std@@PEBVSkData@@@Z
?Make@Context@skcpu@@SA?AV?$unique_ptr@$$CBVContext@skcpu@@U?$default_delete@$$CBVContext@skcpu@@@std@@@std@@AEBUOptions@12@@Z
?Make@Context@skcpu@@SA?AV?$unique_ptr@$$CBVContext@skcpu@@U?$default_delete@$$CBVContext@skcpu@@@std@@@std@@XZ
?Make@FrontBufferedStream@skia@android@@SA?AV?$unique_ptr@VSkStreamRewindable@@U?$default_delete@VSkStreamRewindable@@@std@@@std@@V?$unique_ptr@VSkStream@@U?$default_delete@VSkStream@@@std@@@5@_K@Z
?Make@GrPromiseImageTexture@@SA?AV?$sk_sp@VGrPromiseImageTexture@@@@AEBVGrBackendTexture@@@Z
?Make@SkAnimatedImage@@SA?AV?$sk_sp@VSkAnimatedImage@@@@V?$unique_ptr@VSkAndroidCodec@@U?$default_delete@VSkAndroidCodec@@@std@@@std@@@Z
?Make@SkAnimatedImage@@SA?AV?$sk_sp@VSkAnimatedImage@@@@V?$unique_ptr@VSkAndroidCodec@@U?$default_delete@VSkAndroidCodec@@@std@@@std@@AEBUSkImageInfo@@USkIRect@@V?$sk_sp@VSkPicture@@@@@Z
?Make@SkColorSpace@@SA?AV?$sk_sp@VSkColorSpace@@@@AEBUskcms_ICCProfile@@@Z
?Make@SkColorTable@@SA?AV?$sk_sp@VSkColorTable@@@@QEBE000@Z
?Make@SkColorTable@@SA?AV?$sk_sp@VSkColorTable@@@@QEBE@Z
?Make@SkCornerPathEffect@@SA?AV?$sk_sp@VSkPathEffect@@@@M@Z
?Make@SkDashPathEffect@@SA?AV?$sk_sp@VSkPathEffect@@@@V?$SkSpan@$$CBM@@M@Z
?Make@SkDiscretePathEffect@@SA?AV?$sk_sp@VSkPathEffect@@@@MMI@Z
?Make@SkFILEStream@@SA?AV?$unique_ptr@VSkFILEStream@@U?$default_delete@VSkFILEStream@@@std@@@std@@QEBD@Z
?Make@SkGainmapShader@@SA?AV?$sk_sp@VSkShader@@@@AEBV?$sk_sp@$$CBVSkImage@@@@AEBUSkRect@@AEBUSkSamplingOptions@@012AEBUSkGainmapInfo@@1M@Z
?Make@SkGainmapShader@@SA?AV?$sk_sp@VSkShader@@@@AEBV?$sk_sp@$$CBVSkImage@@@@AEBUSkRect@@AEBUSkSamplingOptions@@012AEBUSkGainmapInfo@@1MV?$sk_sp@VSkColorSpace@@@@@Z
?Make@SkHighContrastFilter@@SA?AV?$sk_sp@VSkColorFilter@@@@AEBUSkHighContrastConfig@@@Z
?Make@SkImageInfo@@SA?AU1@HHW4SkColorType@@W4SkAlphaType@@@Z
?Make@SkImageInfo@@SA?AU1@HHW4SkColorType@@W4SkAlphaType@@V?$sk_sp@VSkColorSpace@@@@@Z
?Make@SkImageInfo@@SA?AU1@USkISize@@$$QEAVSkColorInfo@@@Z
?Make@SkImageInfo@@SA?AU1@USkISize@@AEBVSkColorInfo@@@Z
?Make@SkImageInfo@@SA?AU1@USkISize@@W4SkColorType@@W4SkAlphaType@@@Z
?Make@SkImageInfo@@SA?AU1@USkISize@@W4SkColorType@@W4SkAlphaType@@V?$sk_sp@VSkColorSpace@@@@@Z
?Make@SkJpegEncoder@@YA?AV?$unique_ptr@VSkEncoder@@U?$default_delete@VSkEncoder@@@std@@@std@@PEAVSkWStream@@AEBVSkPixmap@@AEBUOptions@1@@Z
?Make@SkJpegEncoder@@YA?AV?$unique_ptr@VSkEncoder@@U?$default_delete@VSkEncoder@@@std@@@std@@PEAVSkWStream@@AEBVSkYUVAPixmaps@@PEBVSkColorSpace@@AEBUOptions@1@@Z
?Make@SkJpegMetadataDecoder@@SA?AV?$unique_ptr@VSkJpegMetadataDecoder@@U?$default_delete@VSkJpegMetadataDecoder@@@std@@@std@@V?$sk_sp@$$CBVSkData@@@@@Z
?Make@SkJpegMetadataDecoder@@SA?AV?$unique_ptr@VSkJpegMetadataDecoder@@U?$default_delete@VSkJpegMetadataDecoder@@@std@@@std@@V?$vector@USegment@SkJpegMetadataDecoder@@V?$allocator@USegment@SkJpegMetadataDecoder@@@std@@@3@@Z
?Make@SkLine2DPathEffect@@SA?AV?$sk_sp@VSkPathEffect@@@@MAEBVSkMatrix@@@Z
?Make@SkLumaColorFilter@@SA?AV?$sk_sp@VSkColorFilter@@@@XZ
?Make@SkMemoryStream@@SA?AV?$unique_ptr@VSkMemoryStream@@U?$default_delete@VSkMemoryStream@@@std@@@std@@V?$sk_sp@$$CBVSkData@@@@@Z
?Make@SkMesh@@SA?AUResult@1@V?$sk_sp@VSkMeshSpecification@@@@W4Mode@1@V?$sk_sp@VVertexBuffer@SkMesh@@@@_K3V?$sk_sp@$$CBVSkData@@@@V?$SkSpan@VChildPtr@SkRuntimeEffect@@@@AEBUSkRect@@@Z
?Make@SkMeshSpecification@@SA?AUResult@1@V?$SkSpan@$$CBUAttribute@SkMeshSpecification@@@@_KV?$SkSpan@$$CBUVarying@SkMeshSpecification@@@@AEBVSkString@@3@Z
?Make@SkMeshSpecification@@SA?AUResult@1@V?$SkSpan@$$CBUAttribute@SkMeshSpecification@@@@_KV?$SkSpan@$$CBUVarying@SkMeshSpecification@@@@AEBVSkString@@3V?$sk_sp@VSkColorSpace@@@@@Z
?Make@SkMeshSpecification@@SA?AUResult@1@V?$SkSpan@$$CBUAttribute@SkMeshSpecification@@@@_KV?$SkSpan@$$CBUVarying@SkMeshSpecification@@@@AEBVSkString@@3V?$sk_sp@VSkColorSpace@@@@W4SkAlphaType@@@Z
?Make@SkMultiPictureDocument@@YA?AV?$sk_sp@VSkDocument@@@@PEAVSkWStream@@PEBUSkSerialProcs@@V?$function@$$A6AXPEBVSkPicture@@@Z@std@@@Z
?Make@SkPath1DPathEffect@@SA?AV?$sk_sp@VSkPathEffect@@@@AEBVSkPath@@MMW4Style@1@@Z
?Make@SkPath2DPathEffect@@SA?AV?$sk_sp@VSkPathEffect@@@@AEBVSkMatrix@@AEBVSkPath@@@Z
?Make@SkPath@@SA?AV1@V?$SkSpan@$$CBUSkPoint@@@@V?$SkSpan@$$CBE@@V?$SkSpan@$$CBM@@W4SkPathFillType@@_N@Z
?Make@SkPngEncoder@@YA?AV?$unique_ptr@VSkEncoder@@U?$default_delete@VSkEncoder@@@std@@@std@@PEAVSkWStream@@AEBVSkPixmap@@AEBUOptions@1@@Z
?Make@SkPoint3@@SA?AU1@MMM@Z
?Make@SkPoint@@SA?AU1@MM@Z
?Make@SkRSXform@@SA?AU1@MMMM@Z
?Make@SkRect@@SA?AU1@AEBUSkIRect@@@Z
?Make@SkRect@@SA?AU1@AEBUSkISize@@@Z
?Make@SkSVGCanvas@@SA?AV?$unique_ptr@VSkCanvas@@U?$default_delete@VSkCanvas@@@std@@@std@@AEBUSkRect@@PEAVSkWStream@@I@Z
?Make@SkSVGCanvas@@SA?AV?$unique_ptr@VSkCanvas@@U?$default_delete@VSkCanvas@@@std@@@std@@AEBUSkRect@@PEAVSkWStream@@UOptions@1@@Z
?Make@SkShaderMaskFilter@@SA?AV?$sk_sp@VSkMaskFilter@@@@V?$sk_sp@VSkShader@@@@@Z
?Make@SkTrimPathEffect@@SA?AV?$sk_sp@VSkPathEffect@@@@MMW4Mode@1@@Z
?Make@SkXmp@@SA?AV?$unique_ptr@VSkXmp@@U?$default_delete@VSkXmp@@@std@@@std@@V?$sk_sp@VSkData@@@@0@Z
?Make@SkXmp@@SA?AV?$unique_ptr@VSkXmp@@U?$default_delete@VSkXmp@@@std@@@std@@V?$sk_sp@VSkData@@@@@Z
?MakeA8@SkImageInfo@@SA?AU1@HH@Z
?MakeA8@SkImageInfo@@SA?AU1@USkISize@@@Z
?MakeAll@SkMatrix@@SA?AV1@MMMMMMMMM@Z
?MakeAllocate@SkMallocPixelRef@@YA?AV?$sk_sp@VSkPixelRef@@@@AEBUSkImageInfo@@_K@Z
?MakeArrayProc@SkDataTable@@SA?AV?$sk_sp@VSkDataTable@@@@PEBX_KHP6AXPEAX@Z2@Z
?MakeBackendTextureFromImage@SkImages@@YA_NPEAVGrDirectContext@@V?$sk_sp@VSkImage@@@@PEAVGrBackendTexture@@PEAV?$function@$$A6AXVGrBackendTexture@@@Z@std@@@Z
?MakeBlur@SkMaskFilter@@SA?AV?$sk_sp@VSkMaskFilter@@@@W4SkBlurStyle@@M_N@Z
?MakeCICP@SkColorSpace@@SA?AV?$sk_sp@VSkColorSpace@@@@W4CicpId@SkNamedPrimaries@@W43SkNamedTransferFn@@@Z
?MakeCanvas@SkRasterHandleAllocator@@SA?AV?$unique_ptr@VSkCanvas@@U?$default_delete@VSkCanvas@@@std@@@std@@V?$unique_ptr@VSkRasterHandleAllocator@@U?$default_delete@VSkRasterHandleAllocator@@@std@@@3@AEBUSkImageInfo@@PEBURec@1@PEBVSkSurfaceProps@@@Z
?MakeClamp@Agtm@skhdr@@SA?AV?$unique_ptr@VAgtm@skhdr@@U?$default_delete@VAgtm@skhdr@@@std@@@std@@MM@Z
?MakeClipTable@SkTableMaskFilter@@SAXQEAEEE@Z
?MakeCompose@SkPathEffect@@SA?AV?$sk_sp@VSkPathEffect@@@@V2@0@Z
?MakeCopy@SkMemoryStream@@SA?AV?$unique_ptr@VSkMemoryStream@@U?$default_delete@VSkMemoryStream@@@std@@@std@@PEBX_K@Z
?MakeCopy@SkVertices@@SA?AV?$sk_sp@VSkVertices@@@@W4VertexMode@1@HQEBUSkPoint@@1QEBI@Z
?MakeCopy@SkVertices@@SA?AV?$sk_sp@VSkVertices@@@@W4VertexMode@1@HQEBUSkPoint@@1QEBIHQEBG@Z
?MakeCopy@SkYUVAPixmaps@@SA?AV1@AEBV1@@Z
?MakeCopyArray@SkDataTable@@SA?AV?$sk_sp@VSkDataTable@@@@PEBX_KH@Z
?MakeCopyArrays@SkDataTable@@SA?AV?$sk_sp@VSkDataTable@@@@PEBQEBXQEB_KH@Z
?MakeDeserialize@SkTypeface@@SA?AV?$sk_sp@VSkTypeface@@@@PEAVSkStream@@V?$sk_sp@VSkFontMgr@@@@@Z
?MakeDirect@SkMemoryStream@@SA?AV?$unique_ptr@VSkMemoryStream@@U?$default_delete@VSkMemoryStream@@@std@@@std@@PEBX_K@Z
?MakeDocument@SkPDF@@YA?AV?$sk_sp@VSkDocument@@@@PEAVSkWStream@@AEBUMetadata@1@@Z
?MakeDocument@SkXPS@@YA?AV?$sk_sp@VSkDocument@@@@PEAVSkWStream@@PEAUIXpsOMObjectFactory@@UOptions@1@@Z
?MakeEmpty@Metadata@skhdr@@SA?AV12@XZ
?MakeEmpty@SkData@@SA?AV?$sk_sp@VSkData@@@@XZ
?MakeEmpty@SkDataTable@@SA?AV?$sk_sp@VSkDataTable@@@@XZ
?MakeEmpty@SkIRect@@SA?AU1@XZ
?MakeEmpty@SkRRect@@SA?AV1@XZ
?MakeEmpty@SkRect@@SA?AU1@XZ
?MakeEmpty@SkTypeface@@SA?AV?$sk_sp@VSkTypeface@@@@XZ
?MakeFIFOThreadPool@SkExecutor@@SA?AV?$unique_ptr@VSkExecutor@@U?$default_delete@VSkExecutor@@@std@@@std@@H_N@Z
?MakeForBlender@SkRuntimeEffect@@SA?AUResult@1@VSkString@@@Z
?MakeForBlender@SkRuntimeEffect@@SA?AUResult@1@VSkString@@AEBVOptions@1@@Z
?MakeForColorFilter@SkRuntimeEffect@@SA?AUResult@1@VSkString@@@Z
?MakeForColorFilter@SkRuntimeEffect@@SA?AUResult@1@VSkString@@AEBVOptions@1@@Z
?MakeForShader@SkRuntimeEffect@@SA?AUResult@1@VSkString@@@Z
?MakeForShader@SkRuntimeEffect@@SA?AUResult@1@VSkString@@AEBVOptions@1@@Z
?MakeFractalNoise@SkShaders@@YA?AV?$sk_sp@VSkShader@@@@MMHMPEBUSkISize@@@Z
?MakeFromBuffer@Slug@gpu@sktext@@SA?AV?$sk_sp@VSlug@gpu@sktext@@@@AEAVSkReadBuffer@@@Z
?MakeFromCanvasState@SkCanvasStateUtils@@SA?AV?$unique_ptr@VSkCanvas@@U?$default_delete@VSkCanvas@@@std@@@std@@PEBVSkCanvasState@@@Z
?MakeFromCodec@SkAndroidCodec@@SA?AV?$unique_ptr@VSkAndroidCodec@@U?$default_delete@VSkAndroidCodec@@@std@@@std@@V?$unique_ptr@VSkCodec@@U?$default_delete@VSkCodec@@@std@@@3@@Z
?MakeFromData@SkAndroidCodec@@SA?AV?$unique_ptr@VSkAndroidCodec@@U?$default_delete@VSkAndroidCodec@@@std@@@std@@V?$sk_sp@$$CBVSkData@@@@PEAVSkPngChunkReader@@@Z
?MakeFromData@SkCodec@@SA?AV?$unique_ptr@VSkCodec@@U?$default_delete@VSkCodec@@@std@@@std@@V?$sk_sp@$$CBVSkData@@@@PEAVSkPngChunkReader@@@Z
?MakeFromData@SkCodec@@SA?AV?$unique_ptr@VSkCodec@@U?$default_delete@VSkCodec@@@std@@@std@@V?$sk_sp@$$CBVSkData@@@@V?$SkSpan@$$CBUDecoder@SkCodecs@@@@PEAVSkPngChunkReader@@@Z
?MakeFromData@SkPicture@@SA?AV?$sk_sp@VSkPicture@@@@PEBVSkData@@PEBUSkDeserialProcs@@@Z
?MakeFromData@SkPicture@@SA?AV?$sk_sp@VSkPicture@@@@PEBX_KPEBUSkDeserialProcs@@@Z
?MakeFromEncodedWIC@SkImageGeneratorWIC@@YA?AV?$unique_ptr@VSkImageGenerator@@U?$default_delete@VSkImageGenerator@@@std@@@std@@V?$sk_sp@$$CBVSkData@@@@@Z
?MakeFromFD@SkData@@SA?AV?$sk_sp@VSkData@@@@H@Z
?MakeFromFILE@SkData@@SA?AV?$sk_sp@VSkData@@@@PEAU_iobuf@@@Z
?MakeFromFile@SkStream@@SA?AV?$unique_ptr@VSkStreamAsset@@U?$default_delete@VSkStreamAsset@@@std@@@std@@QEBD@Z
?MakeFromFileName@SkData@@SA?AV?$sk_sp@VSkData@@@@QEBD@Z
?MakeFromMalloc@SkData@@SA?AV?$sk_sp@VSkData@@@@PEBX_K@Z
?MakeFromPosGlyphs@SkTextBlob@@SA?AV?$sk_sp@VSkTextBlob@@@@V?$SkSpan@$$CBG@@V?$SkSpan@$$CBUSkPoint@@@@AEBVSkFont@@@Z
?MakeFromPosHGlyphs@SkTextBlob@@SA?AV?$sk_sp@VSkTextBlob@@@@V?$SkSpan@$$CBG@@V?$SkSpan@$$CBM@@MAEBVSkFont@@@Z
?MakeFromPosText@SkTextBlob@@SA?AV?$sk_sp@VSkTextBlob@@@@PEBX_KV?$SkSpan@$$CBUSkPoint@@@@AEBVSkFont@@W4SkTextEncoding@@@Z
?MakeFromPosTextH@SkTextBlob@@SA?AV?$sk_sp@VSkTextBlob@@@@PEBX_KV?$SkSpan@$$CBM@@MAEBVSkFont@@W4SkTextEncoding@@@Z
?MakeFromRSXform@SkTextBlob@@SA?AV?$sk_sp@VSkTextBlob@@@@PEBX_KV?$SkSpan@$$CBUSkRSXform@@@@AEBVSkFont@@W4SkTextEncoding@@@Z
?MakeFromRSXformGlyphs@SkTextBlob@@SA?AV?$sk_sp@VSkTextBlob@@@@V?$SkSpan@$$CBG@@V?$SkSpan@$$CBUSkRSXform@@@@AEBVSkFont@@@Z
?MakeFromRadians@SkRSXform@@SA?AU1@MMMMMM@Z
?MakeFromSource@SkRuntimeEffect@@CA?AUResult@1@VSkString@@AEBVOptions@1@W4ProgramKind@SkSL@@@Z
?MakeFromSourceWithStructs@SkMeshSpecification@@CA?AUResult@1@V?$SkSpan@$$CBUAttribute@SkMeshSpecification@@@@_KV?$SkSpan@$$CBUVarying@SkMeshSpecification@@@@AEBVSkString@@3V?$sk_sp@VSkColorSpace@@@@W4SkAlphaType@@@Z
?MakeFromStream@DWriteFontTypeface@@SA?AV?$sk_sp@VSkTypeface@@@@V?$unique_ptr@VSkStreamAsset@@U?$default_delete@VSkStreamAsset@@@std@@@std@@AEBUSkFontArguments@@@Z
?MakeFromStream@SkAndroidCodec@@SA?AV?$unique_ptr@VSkAndroidCodec@@U?$default_delete@VSkAndroidCodec@@@std@@@std@@V?$unique_ptr@VSkStream@@U?$default_delete@VSkStream@@@std@@@3@PEAVSkPngChunkReader@@@Z
?MakeFromStream@SkCodec@@SA?AV?$unique_ptr@VSkCodec@@U?$default_delete@VSkCodec@@@std@@@std@@V?$unique_ptr@VSkStream@@U?$default_delete@VSkStream@@@std@@@3@PEAW4Result@1@PEAVSkPngChunkReader@@W4SelectionPolicy@1@@Z
?MakeFromStream@SkCodec@@SA?AV?$unique_ptr@VSkCodec@@U?$default_delete@VSkCodec@@@std@@@std@@V?$unique_ptr@VSkStream@@U?$default_delete@VSkStream@@@std@@@3@V?$SkSpan@$$CBUDecoder@SkCodecs@@@@PEAW4Result@1@PEAVSkPngChunkReader@@W4SelectionPolicy@1@@Z
?MakeFromStream@SkCustomTypefaceBuilder@@SA?AV?$sk_sp@VSkTypeface@@@@V?$unique_ptr@VSkStreamAsset@@U?$default_delete@VSkStreamAsset@@@std@@@std@@AEBUSkFontArguments@@@Z
?MakeFromStream@SkData@@SA?AV?$sk_sp@VSkData@@@@PEAVSkStream@@_K@Z
?MakeFromStream@SkPicture@@SA?AV?$sk_sp@VSkPicture@@@@PEAVSkStream@@PEBUSkDeserialProcs@@@Z
?MakeFromStreamPriv@SkPicture@@CA?AV?$sk_sp@VSkPicture@@@@PEAVSkStream@@PEBUSkDeserialProcs@@PEAVSkTypefacePlayback@@H@Z
?MakeFromString@SkTextBlob@@SA?AV?$sk_sp@VSkTextBlob@@@@PEBDAEBVSkFont@@W4SkTextEncoding@@@Z
?MakeFromText@SkTextBlob@@SA?AV?$sk_sp@VSkTextBlob@@@@PEBX_KAEBVSkFont@@W4SkTextEncoding@@@Z
?MakeGammaTable@SkTableMaskFilter@@SAXQEAEM@Z
?MakeIWH@SkRect@@SA?AU1@HH@Z
?MakeIndexBuffer@SkMeshes@@YA?AV?$sk_sp@VIndexBuffer@SkMesh@@@@PEAVGrDirectContext@@PEBX_K@Z
?MakeIndexBuffer@SkMeshes@@YA?AV?$sk_sp@VIndexBuffer@SkMesh@@@@PEBX_K@Z
?MakeIndexed@SkMesh@@SA?AUResult@1@V?$sk_sp@VSkMeshSpecification@@@@W4Mode@1@V?$sk_sp@VVertexBuffer@SkMesh@@@@_K3V?$sk_sp@VIndexBuffer@SkMesh@@@@33V?$sk_sp@$$CBVSkData@@@@V?$SkSpan@VChildPtr@SkRuntimeEffect@@@@AEBUSkRect@@@Z
?MakeInternal@SkRuntimeEffect@@CA?AUResult@1@V?$unique_ptr@UProgram@SkSL@@U?$default_delete@UProgram@SkSL@@@std@@@std@@AEBVOptions@1@W4ProgramKind@SkSL@@@Z
?MakeLIFOThreadPool@SkExecutor@@SA?AV?$unique_ptr@VSkExecutor@@U?$default_delete@VSkExecutor@@@std@@@std@@H_N@Z
?MakeLTRB@SkIRect@@SA?AU1@HHHH@Z
?MakeLTRB@SkRect@@SA?AU1@MMMM@Z
?MakeLinear@SkGradientShader@@SA?AV?$sk_sp@VSkShader@@@@QEBUSkPoint@@QEBIQEBMHW4SkTileMode@@IPEBVSkMatrix@@@Z
?MakeLinear@SkGradientShader@@SA?AV?$sk_sp@VSkShader@@@@QEBUSkPoint@@QEBU?$SkRGBA4f@$02@@V?$sk_sp@VSkColorSpace@@@@QEBMHW4SkTileMode@@AEBUInterpolation@1@PEBVSkMatrix@@@Z
?MakeLinear@SkGradientShader@@SA?AV?$sk_sp@VSkShader@@@@QEBUSkPoint@@QEBU?$SkRGBA4f@$02@@V?$sk_sp@VSkColorSpace@@@@QEBMHW4SkTileMode@@IPEBVSkMatrix@@@Z
?MakeMPF@SkJpegGainmapEncoder@@SA_NPEAVSkWStream@@PEAPEBVSkData@@_K@Z
?MakeMock@GrBackendFormat@@SA?AV1@W4GrColorType@@W4SkTextureCompressionType@@_N@Z
?MakeMock@GrDirectContext@@SA?AV?$sk_sp@VGrDirectContext@@@@PEBUGrMockOptions@@@Z
?MakeMock@GrDirectContext@@SA?AV?$sk_sp@VGrDirectContext@@@@PEBUGrMockOptions@@AEBUGrContextOptions@@@Z
?MakeMultiListFIFOThreadPool@SkExecutor@@SA?AV?$unique_ptr@VSkExecutor@@U?$default_delete@VSkExecutor@@@std@@@std@@HH_N@Z
?MakeMultiListLIFOThreadPool@SkExecutor@@SA?AV?$unique_ptr@VSkExecutor@@U?$default_delete@VSkExecutor@@@std@@@std@@HH_N@Z
?MakeN32@SkImageInfo@@SA?AU1@HHW4SkAlphaType@@@Z
?MakeN32@SkImageInfo@@SA?AU1@HHW4SkAlphaType@@V?$sk_sp@VSkColorSpace@@@@@Z
?MakeN32Premul@SkImageInfo@@SA?AU1@HH@Z
?MakeN32Premul@SkImageInfo@@SA?AU1@HHV?$sk_sp@VSkColorSpace@@@@@Z
?MakeN32Premul@SkImageInfo@@SA?AU1@USkISize@@@Z
?MakeN32Premul@SkImageInfo@@SA?AU1@USkISize@@V?$sk_sp@VSkColorSpace@@@@@Z
?MakeNullCheck@SkPath@@CA?AV1@V?$sk_sp@VSkPathData@@@@W4SkPathFillType@@_N@Z
?MakeOval@SkRRect@@SA?AV1@AEBUSkRect@@@Z
?MakePlaceholder@SkPicture@@SA?AV?$sk_sp@VSkPicture@@@@USkRect@@@Z
?MakePtSize@SkIRect@@SA?AU1@USkIPoint@@USkISize@@@Z
?MakeRGB@SkColorSpace@@SA?AV?$sk_sp@VSkColorSpace@@@@AEBUskcms_TransferFunction@@AEBUskcms_Matrix3x3@@@Z
?MakeRadial@SkGradientShader@@SA?AV?$sk_sp@VSkShader@@@@AEBUSkPoint@@MQEBIQEBMHW4SkTileMode@@IPEBVSkMatrix@@@Z
?MakeRadial@SkGradientShader@@SA?AV?$sk_sp@VSkShader@@@@AEBUSkPoint@@MQEBU?$SkRGBA4f@$02@@V?$sk_sp@VSkColorSpace@@@@QEBMHW4SkTileMode@@AEBUInterpolation@1@PEBVSkMatrix@@@Z
?MakeRadial@SkGradientShader@@SA?AV?$sk_sp@VSkShader@@@@AEBUSkPoint@@MQEBU?$SkRGBA4f@$02@@V?$sk_sp@VSkColorSpace@@@@QEBMHW4SkTileMode@@IPEBVSkMatrix@@@Z
?MakeRasterDirect@SkCanvas@@SA?AV?$unique_ptr@VSkCanvas@@U?$default_delete@VSkCanvas@@@std@@@std@@AEBUSkImageInfo@@PEAX_KPEBVSkSurfaceProps@@@Z
?MakeRasterDirectN32@SkCanvas@@SA?AV?$unique_ptr@VSkCanvas@@U?$default_delete@VSkCanvas@@@std@@@std@@HHPEAI_K@Z
?MakeRect@SkRRect@@SA?AV1@AEBUSkRect@@@Z
?MakeRectRadii@SkRRect@@SA?AV1@AEBUSkRect@@QEBUSkPoint@@@Z
?MakeRectToRect@SkMatrix@@SA?AV1@AEBUSkRect@@0W4ScaleToFit@1@@Z
?MakeRectXY@SkRRect@@SA?AV1@AEBUSkRect@@MM@Z
?MakeReferenceWhite@Agtm@skhdr@@SA?AV?$unique_ptr@VAgtm@skhdr@@U?$default_delete@VAgtm@skhdr@@@std@@@std@@MM@Z
?MakeS32@SkImageInfo@@SA?AU1@HHW4SkAlphaType@@@Z
?MakeSRGB@SkColorSpace@@SA?AV?$sk_sp@VSkColorSpace@@@@XZ
?MakeSRGBLinear@SkColorSpace@@SA?AV?$sk_sp@VSkColorSpace@@@@XZ
?MakeSettings@SkRuntimeEffect@@CA?AUProgramSettings@SkSL@@AEBVOptions@1@@Z
?MakeSize@SkIRect@@SA?AU1@AEBUSkISize@@@Z
?MakeSize@SkRect@@SA?AU1@AEBUSkSize@@@Z
?MakeSubset@SkData@@SA?AV?$sk_sp@VSkData@@@@PEBV1@_K1@Z
?MakeSum@SkPathEffect@@SA?AV?$sk_sp@VSkPathEffect@@@@V2@0@Z
?MakeSweep@SkGradientShader@@SA?AV?$sk_sp@VSkShader@@@@MMQEBIQEBMHIPEBVSkMatrix@@@Z
?MakeSweep@SkGradientShader@@SA?AV?$sk_sp@VSkShader@@@@MMQEBIQEBMHW4SkTileMode@@MMIPEBVSkMatrix@@@Z
?MakeSweep@SkGradientShader@@SA?AV?$sk_sp@VSkShader@@@@MMQEBU?$SkRGBA4f@$02@@V?$sk_sp@VSkColorSpace@@@@QEBMHIPEBVSkMatrix@@@Z
?MakeSweep@SkGradientShader@@SA?AV?$sk_sp@VSkShader@@@@MMQEBU?$SkRGBA4f@$02@@V?$sk_sp@VSkColorSpace@@@@QEBMHW4SkTileMode@@MMAEBUInterpolation@1@PEBVSkMatrix@@@Z
?MakeSweep@SkGradientShader@@SA?AV?$sk_sp@VSkShader@@@@MMQEBU?$SkRGBA4f@$02@@V?$sk_sp@VSkColorSpace@@@@QEBMHW4SkTileMode@@MMIPEBVSkMatrix@@@Z
?MakeTraced@SkRuntimeEffect@@SA?AUTracedShader@1@V?$sk_sp@VSkShader@@@@AEBUSkIPoint@@@Z
?MakeTurbulence@SkShaders@@YA?AV?$sk_sp@VSkShader@@@@MMHMPEBUSkISize@@@Z
?MakeTwoPointConical@SkGradientShader@@SA?AV?$sk_sp@VSkShader@@@@AEBUSkPoint@@M0MQEBIQEBMHW4SkTileMode@@IPEBVSkMatrix@@@Z
?MakeTwoPointConical@SkGradientShader@@SA?AV?$sk_sp@VSkShader@@@@AEBUSkPoint@@M0MQEBU?$SkRGBA4f@$02@@V?$sk_sp@VSkColorSpace@@@@QEBMHW4SkTileMode@@AEBUInterpolation@1@PEBVSkMatrix@@@Z
?MakeTwoPointConical@SkGradientShader@@SA?AV?$sk_sp@VSkShader@@@@AEBUSkPoint@@M0MQEBU?$SkRGBA4f@$02@@V?$sk_sp@VSkColorSpace@@@@QEBMHW4SkTileMode@@IPEBVSkMatrix@@@Z
?MakeUninitialized@SkData@@SA?AV?$sk_sp@VSkData@@@@_K@Z
?MakeUnknown@SkImageInfo@@SA?AU1@HH@Z
?MakeUnknown@SkImageInfo@@SA?AU1@XZ
?MakeVertexBuffer@SkMeshes@@YA?AV?$sk_sp@VVertexBuffer@SkMesh@@@@PEAVGrDirectContext@@PEBX_K@Z
?MakeVertexBuffer@SkMeshes@@YA?AV?$sk_sp@VVertexBuffer@SkMesh@@@@PEBX_K@Z
?MakeWH@SkIRect@@SA?AU1@HH@Z
?MakeWH@SkRect@@SA?AU1@MM@Z
?MakeWithCString@SkData@@SA?AV?$sk_sp@VSkData@@@@QEBD@Z
?MakeWithCopy@SkData@@SA?AV?$sk_sp@VSkData@@@@PEBX_K@Z
?MakeWithData@SkMallocPixelRef@@YA?AV?$sk_sp@VSkPixelRef@@@@AEBUSkImageInfo@@_KV?$sk_sp@VSkData@@@@@Z
?MakeWithFilter@SkImages@@YA?AV?$sk_sp@VSkImage@@@@PEAVGrRecordingContext@@V2@PEBVSkImageFilter@@AEBUSkIRect@@3PEAU5@PEAUSkIPoint@@@Z
?MakeWithFilter@SkImages@@YA?AV?$sk_sp@VSkImage@@@@V2@PEBVSkImageFilter@@AEBUSkIRect@@2PEAU4@PEAUSkIPoint@@@Z
?MakeWithProc@SkData@@SA?AV?$sk_sp@VSkData@@@@PEBX_KP6AX0PEAX@Z2@Z
?MakeWithSkColors@SkOverdrawColorFilter@@SA?AV?$sk_sp@VSkColorFilter@@@@QEBI@Z
?MakeWithoutCopy@SkData@@SA?AV?$sk_sp@VSkData@@@@PEBX_K@Z
?MakeXYWH@SkIRect@@SA?AU1@HHHH@Z
?MakeXYWH@SkRect@@SA?AU1@MMMM@Z
?MakeZeroInitialized@SkData@@SA?AV?$sk_sp@VSkData@@@@_K@Z
?Matrix@SkColorFilters@@SA?AV?$sk_sp@VSkColorFilter@@@@AEBVSkColorMatrix@@W4Clamp@1@@Z
?Matrix@SkColorFilters@@SA?AV?$sk_sp@VSkColorFilter@@@@QEBMW4Clamp@1@@Z
?MatrixConvolution@SkImageFilters@@SA?AV?$sk_sp@VSkImageFilter@@@@AEBUSkISize@@QEBMMMAEBUSkIPoint@@W4SkTileMode@@_NV2@AEBUCropRect@1@@Z
?MatrixTransform@SkImageFilters@@SA?AV?$sk_sp@VSkImageFilter@@@@AEBVSkMatrix@@AEBUSkSamplingOptions@@V2@@Z
?Merge@SkImageFilters@@SA?AV?$sk_sp@VSkImageFilter@@@@QEAV2@HAEBUCropRect@1@@Z
?Merge@SkImageFilters@@SA?AV?$sk_sp@VSkImageFilter@@@@V2@0AEBUCropRect@1@@Z
?MinBufferedBytesNeeded@SkCodec@@SA_KXZ
?Mode@SkBlender@@SA?AV?$sk_sp@VSkBlender@@@@W4SkBlendMode@@@Z
?NameToFactory@SkFlattenable@@SAP6A?AV?$sk_sp@VSkFlattenable@@@@AEAVSkReadBuffer@@@ZQEBD@Z
?NextUTF16@SkUTF@@YAHPEAPEBGPEBG@Z
?NextUTF32@SkUTF@@YAHPEAPEBHPEBH@Z
?NextUTF8@SkUTF@@YAHPEAPEBDPEBD@Z
?NextUTF8WithReplacement@SkUTF@@YAHPEAPEBDPEBD@Z
?NextUniqueID@Slug@gpu@sktext@@CAIXZ
?NoopReleaseProc@SkData@@CAXPEBXPEAX@Z
?Normal@SkFontStyle@@SA?AV1@XZ
?Normalize@SkPoint@@SAMPEAU1@@Z
?Normalize@SkV2@@SA?AU1@U1@@Z
?Normalize@SkV3@@SA?AU1@AEBU1@@Z
?Normalize@SkV4@@SA?AU1@AEBU1@@Z
?Null@SkSurfaces@@YA?AV?$sk_sp@VSkSurface@@@@HH@Z
?NumChannelsAndDataType@SkYUVAPixmapInfo@@SA?AV?$tuple@HW4DataType@SkYUVAPixmapInfo@@@std@@W4SkColorType@@@Z
?NumChannelsInPlane@SkYUVAInfo@@SAHW4PlaneConfig@1@H@Z
?NumPlanes@SkYUVAInfo@@SAHW4PlaneConfig@1@@Z
?Offset@SkImageFilters@@SA?AV?$sk_sp@VSkImageFilter@@@@MMV2@AEBUCropRect@1@@Z
?Offset@SkPoint@@SAXQEAU1@HAEBU1@@Z
?Offset@SkPoint@@SAXQEAU1@HMM@Z
?Op@@YA?AV?$optional@VSkPath@@@std@@AEBVSkPath@@0W4SkPathOp@@@Z
?Oper@SkRegion@@CA_NAEBV1@0W4Op@1@PEAV1@@Z
?Orient@SkPixmapUtils@@YA_NAEBVSkPixmap@@0W4SkEncodedOrigin@@@Z
?Oval@SkPath@@SA?AV1@AEBUSkRect@@W4SkPathDirection@@@Z
?Oval@SkPath@@SA?AV1@AEBUSkRect@@W4SkPathDirection@@I@Z
?PMColorToColor@SkUnPreMultiply@@SAII@Z
?POISON_TAG@Compiler@SkSL@@2QBDB
?POSITION_NAME@Compiler@SkSL@@2QBDB
?Parse@SkExif@@YAXAEAUMetadata@1@PEBVSkData@@@Z
?PeekErrorSingleton@SkPath@@CAPEAVSkPathData@@XZ
?Persp_pts@SkMatrix@@CAXAEBV1@QEAUSkPoint@@QEBU2@H@Z
?Perspective@SkM44@@SA?AV1@MMM@Z
?Picture@SkImageFilters@@SA?AV?$sk_sp@VSkImageFilter@@@@V?$sk_sp@VSkPicture@@@@@Z
?Picture@SkImageFilters@@SA?AV?$sk_sp@VSkImageFilter@@@@V?$sk_sp@VSkPicture@@@@AEBUSkRect@@@Z
?PinnableRasterFromBitmap@SkImages@@YA?AV?$sk_sp@VSkImage@@@@AEBVSkBitmap@@@Z
?PlaneDimensions@SkYUVAInfo@@SAHUSkISize@@W4PlaneConfig@1@W4Subsampling@1@W4SkEncodedOrigin@@QEAU2@@Z
?PlaneSubsamplingFactors@SkYUVAInfo@@SA?AV?$tuple@HH@std@@W4PlaneConfig@1@W4Subsampling@1@H@Z
?PointLitDiffuse@SkImageFilters@@SA?AV?$sk_sp@VSkImageFilter@@@@AEBUSkPoint3@@IMMV2@AEBUCropRect@1@@Z
?PointLitSpecular@SkImageFilters@@SA?AV?$sk_sp@VSkImageFilter@@@@AEBUSkPoint3@@IMMMV2@AEBUCropRect@1@@Z
?Poly2Proc@SkMatrix@@CA_NQEBUSkPoint@@PEAV1@@Z
?Poly3Proc@SkMatrix@@CA_NQEBUSkPoint@@PEAV1@@Z
?Poly4Proc@SkMatrix@@CA_NQEBUSkPoint@@PEAV1@@Z
?PolyToPoly@SkMatrix@@SA?AV?$optional@VSkMatrix@@@std@@V?$SkSpan@$$CBUSkPoint@@@@0@Z
?Polygon@SkPath@@SA?AV1@V?$SkSpan@$$CBUSkPoint@@@@_NW4SkPathFillType@@1@Z
?PrivateNewWithCopy@SkData@@CA?AV?$sk_sp@VSkData@@@@PEBX_K@Z
?PromiseTextureFrom@SkImages@@YA?AV?$sk_sp@VSkImage@@@@V?$sk_sp@VGrContextThreadSafeProxy@@@@AEBVGrBackendFormat@@USkISize@@W4Mipmapped@skgpu@@W4GrSurfaceOrigin@@W4SkColorType@@W4SkAlphaType@@V?$sk_sp@VSkColorSpace@@@@P6A?AV?$sk_sp@VGrPromiseImageTexture@@@@PEAX@ZP6AX8@Z8@Z
?PromiseTextureFromYUVA@SkImages@@YA?AV?$sk_sp@VSkImage@@@@V?$sk_sp@VGrContextThreadSafeProxy@@@@AEBVGrYUVABackendTextureInfo@@V?$sk_sp@VSkColorSpace@@@@P6A?AV?$sk_sp@VGrPromiseImageTexture@@@@PEAX@ZP6AX3@ZQEAPEAX@Z
?PurgeAllCaches@SkGraphics@@SAXXZ
?PurgeFontCache@SkGraphics@@SAXXZ
?PurgePinnedFontCache@SkGraphics@@SAXXZ
?PurgeResourceCache@SkGraphics@@SAXXZ
?RGBtoYUV@SkColorMatrix@@SA?AV1@W4SkYUVColorSpace@@@Z
?RRect@SkPath@@SA?AV1@AEBUSkRect@@MMW4SkPathDirection@@@Z
?RRect@SkPath@@SA?AV1@AEBVSkRRect@@W4SkPathDirection@@@Z
?RRect@SkPath@@SA?AV1@AEBVSkRRect@@W4SkPathDirection@@I@Z
?RTADJUST_NAME@Compiler@SkSL@@2QBDB
?Raster@SkSurfaces@@YA?AV?$sk_sp@VSkSurface@@@@AEBUSkImageInfo@@_KPEBVSkSurfaceProps@@@Z
?RasterBackend@SkCapabilities@@SA?AV?$sk_sp@$$CBVSkCapabilities@@@@XZ
?RasterFromBitmap@SkImages@@YA?AV?$sk_sp@VSkImage@@@@AEBVSkBitmap@@@Z
?RasterFromCompressedTextureData@SkImages@@YA?AV?$sk_sp@VSkImage@@@@V?$sk_sp@VSkData@@@@HHW4SkTextureCompressionType@@@Z
?RasterFromData@SkImages@@YA?AV?$sk_sp@VSkImage@@@@AEBUSkImageInfo@@V?$sk_sp@VSkData@@@@_K@Z
?RasterFromPixmap@SkImages@@YA?AV?$sk_sp@VSkImage@@@@AEBVSkPixmap@@P6AXPEBXPEAX@Z2@Z
?RasterFromPixmapCopy@SkImages@@YA?AV?$sk_sp@VSkImage@@@@AEBVSkPixmap@@@Z
?Raw@SkPath@@SA?AV1@V?$SkSpan@$$CBUSkPoint@@@@V?$SkSpan@$$CBW4SkPathVerb@@@@V?$SkSpan@$$CBM@@W4SkPathFillType@@_N@Z
?RawImage@SkShaders@@YA?AV?$sk_sp@VSkShader@@@@V?$sk_sp@VSkImage@@@@W4SkTileMode@@1AEBUSkSamplingOptions@@PEBVSkMatrix@@@Z
?Read@SkMultiPictureDocument@@YA_NPEAVSkStreamSeekable@@PEAUSkDocumentPage@@HPEBUSkDeserialProcs@@@Z
?ReadFromMemory@SkPath@@SA?AV?$optional@VSkPath@@@std@@PEBX_KPEA_K@Z
?ReadPageCount@SkMultiPictureDocument@@YAHPEAVSkStreamSeekable@@@Z
?RecommendedRGBAColorType@SkYUVAPixmaps@@SA?AW4SkColorType@@W4DataType@SkYUVAPixmapInfo@@@Z
?Rect2Rect@SkMatrix@@SA?AV?$optional@VSkMatrix@@@std@@AEBUSkRect@@0W4ScaleToFit@1@@Z
?Rect@SkPath@@SA?AV1@AEBUSkRect@@W4SkPathDirection@@I@Z
?Rect@SkPath@@SA?AV1@AEBUSkRect@@W4SkPathFillType@@W4SkPathDirection@@I@Z
?RectToRect@SkM44@@SA?AV1@AEBUSkRect@@0@Z
?RectToRect@SkMatrix@@SA?AV1@AEBUSkRect@@0W4ScaleToFit@1@@Z
?RectToRectOrIdentity@SkMatrix@@SA?AV1@AEBUSkRect@@0W4ScaleToFit@1@@Z
?RefEmpty@SkFontMgr@@SA?AV?$sk_sp@VSkFontMgr@@@@XZ
?Register@SkCodecs@@YAXUDecoder@1@@Z
?Register@SkFlattenable@@SAXQEBDP6A?AV?$sk_sp@VSkFlattenable@@@@AEAVSkReadBuffer@@@Z@Z
?Register@SkTypeface@@SAXIP6A?AV?$sk_sp@VSkTypeface@@@@V?$unique_ptr@VSkStreamAsset@@U?$default_delete@VSkStreamAsset@@@std@@@std@@AEBUSkFontArguments@@@Z@Z
?RegisterFlattenables@SkCornerPathEffect@@SAXXZ
?RegisterFlattenables@SkDiscretePathEffect@@SAXXZ
?RegisterFlattenables@SkLine2DPathEffect@@SAXXZ
?RegisterFlattenables@SkMaskFilter@@CAXXZ
?RegisterFlattenables@SkPath1DPathEffect@@SAXXZ
?RegisterFlattenables@SkPath2DPathEffect@@SAXXZ
?RegisterFlattenables@SkRuntimeEffect@@SAXXZ
?RegisterFlattenables@SkShaderMaskFilter@@CAXXZ
?RegisterFlattenables@SkTableMaskFilter@@CAXXZ
?RegisterFlattenablesIfNeeded@SkFlattenable@@CAXXZ
?ReleaseCanvasState@SkCanvasStateUtils@@SAXPEAVSkCanvasState@@@Z
?RenderTarget@SkSurfaces@@YA?AV?$sk_sp@VSkSurface@@@@PEAVGrRecordingContext@@AEBVGrSurfaceCharacterization@@W4Budgeted@skgpu@@@Z
?RenderTarget@SkSurfaces@@YA?AV?$sk_sp@VSkSurface@@@@PEAVGrRecordingContext@@W4Budgeted@skgpu@@AEBUSkImageInfo@@HW4GrSurfaceOrigin@@PEBVSkSurfaceProps@@_N5@Z
?ResolveMSAA@SkSurfaces@@YAXPEAVSkSurface@@@Z
?ResultToString@SkCodec@@SAPEBDW4Result@1@@Z
?ReversePath@SkOpBuilder@@CAXPEAVSkPath@@@Z
?Rewind@SkPathRef@@SAXPEAV?$sk_sp@VSkPathRef@@@@@Z
?Rotate@SkM44@@SA?AV1@USkV3@@M@Z
?RotateDeg@SkMatrix@@SA?AV1@M@Z
?RotateDeg@SkMatrix@@SA?AV1@MUSkPoint@@@Z
?RotateRad@SkMatrix@@SA?AV1@M@Z
?RowMajor@SkM44@@SA?AV1@QEBM@Z
?Rows@SkM44@@SA?AV1@AEBUSkV4@@000@Z
?RunsAreARect@SkRegion@@CA_NQEBHHPEAUSkIRect@@@Z
?RuntimeShader@SkImageFilters@@SA?AV?$sk_sp@VSkImageFilter@@@@AEBVSkRuntimeEffectBuilder@@MQEAV?$basic_string_view@DU?$char_traits@D@std@@@std@@QEBV2@H@Z
?RuntimeShader@SkImageFilters@@SA?AV?$sk_sp@VSkImageFilter@@@@AEBVSkRuntimeEffectBuilder@@MV?$basic_string_view@DU?$char_traits@D@std@@@std@@V2@@Z
?RuntimeShader@SkImageFilters@@SA?AV?$sk_sp@VSkImageFilter@@@@AEBVSkRuntimeEffectBuilder@@QEAV?$basic_string_view@DU?$char_traits@D@std@@@std@@QEBV2@H@Z
?RuntimeShader@SkImageFilters@@SA?AV?$sk_sp@VSkImageFilter@@@@AEBVSkRuntimeEffectBuilder@@V?$basic_string_view@DU?$char_traits@D@std@@@std@@V2@@Z
?SRGBToLinearGamma@SkColorFilters@@SA?AV?$sk_sp@VSkColorFilter@@@@XZ
?ScalarsPerGlyph@SkTextBlob@@CAIW4GlyphPositioning@1@@Z
?Scale@SkM44@@SA?AV1@MMM@Z
?Scale@SkMatrix@@SA?AV1@MM@Z
?ScaleTranslate@SkMatrix@@SA?AV1@MMMM@Z
?Scale_pts@SkMatrix@@CAXAEBV1@QEAUSkPoint@@QEBU2@H@Z
?SetAffineIdentity@SkMatrix@@SAXQEAM@Z
?SetDefault@SkExecutor@@SAXPEAV1@@Z
?SetFontCacheCountLimit@SkGraphics@@SAHH@Z
?SetFontCacheLimit@SkGraphics@@SA_K_K@Z
?SetImageGeneratorFromEncodedDataFactory@SkGraphics@@SAP6A?AV?$unique_ptr@VSkImageGenerator@@U?$default_delete@VSkImageGenerator@@@std@@@std@@V?$sk_sp@VSkData@@@@@ZP6A?AV23@0@Z@Z
?SetInstance@SkEventTracer@@SA_NPEAV1@_N@Z
?SetNodeId@SkPDF@@YAXPEAVSkCanvas@@H@Z
?SetOpenTypeSVGDecoderFactory@SkGraphics@@SAP6A?AV?$unique_ptr@VSkOpenTypeSVGDecoder@@U?$default_delete@VSkOpenTypeSVGDecoder@@@std@@@std@@PEBE_K@ZP6A?AV23@01@Z@Z
?SetResourceCacheSingleAllocationByteLimit@SkGraphics@@SA_K_K@Z
?SetResourceCacheTotalByteLimit@SkGraphics@@SA_K_K@Z
?SetTypefaceCacheCountLimit@SkGraphics@@SAHH@Z
?Shader@SkImageFilters@@SA?AV?$sk_sp@VSkImageFilter@@@@V?$sk_sp@VSkShader@@@@AEBUCropRect@1@@Z
?Shader@SkImageFilters@@SA?AV?$sk_sp@VSkImageFilter@@@@V?$sk_sp@VSkShader@@@@W4Dither@1@AEBUCropRect@1@@Z
?Simplify@@YA?AV?$optional@VSkPath@@@std@@AEBVSkPath@@@Z
?SizeOfPackedUInt@SkWStream@@SAH_K@Z
?SkAnnotateLinkToDestination@@YAXPEAVSkCanvas@@AEBUSkRect@@PEAVSkData@@@Z
?SkAnnotateNamedDestination@@YAXPEAVSkCanvas@@AEBUSkPoint@@PEAVSkData@@@Z
?SkAnnotateRectWithURL@@YAXPEAVSkCanvas@@AEBUSkRect@@PEAVSkData@@@Z
?SkBlendMode_AsCoeff@@YA_NW4SkBlendMode@@PEAW4SkBlendModeCoeff@@1@Z
?SkBlendMode_Name@@YAPEBDW4SkBlendMode@@@Z
?SkColorTypeBytesPerPixel@@YAHW4SkColorType@@@Z
?SkColorTypeIsAlwaysOpaque@@YA_NW4SkColorType@@@Z
?SkColorTypeValidateAlphaType@@YA_NW4SkColorType@@W4SkAlphaType@@PEAW42@@Z
?SkCreateTypefaceFromLOGFONT@@YA?AV?$sk_sp@VSkTypeface@@@@AEBUtagLOGFONTA@@@Z
?SkDebugf@@YAXQEBDZZ
?SkFontMgr_New_DirectWrite@@YA?AV?$sk_sp@VSkFontMgr@@@@PEAUIDWriteFactory@@PEAUIDWriteFontCollection@@@Z
?SkFontMgr_New_DirectWrite@@YA?AV?$sk_sp@VSkFontMgr@@@@PEAUIDWriteFactory@@PEAUIDWriteFontCollection@@PEAUIDWriteFontFallback@@@Z
?SkFontMgr_New_GDI@@YA?AV?$sk_sp@VSkFontMgr@@@@XZ
?SkHSVToColor@@YAIIQEBM@Z
?SkLOGFONTFromTypeface@@YAXPEBVSkTypeface@@PEAUtagLOGFONTA@@@Z
?SkMakeImageFromRasterBitmap@@YA?AV?$sk_sp@VSkImage@@@@AEBVSkBitmap@@W4SkCopyPixelsMode@@@Z
?SkMakeNullCanvas@@YA?AV?$unique_ptr@VSkCanvas@@U?$default_delete@VSkCanvas@@@std@@@std@@XZ
?SkPMColorGetA@@YAEI@Z
?SkPMColorGetB@@YAEI@Z
?SkPMColorGetG@@YAEI@Z
?SkPMColorGetR@@YAEI@Z
?SkPMColorSetARGB@@YAIEEEE@Z
?SkPreMultiplyARGB@@YAIIIII@Z
?SkPreMultiplyColor@@YAII@Z
?SkRGBToHSV@@YAXIIIQEAM@Z
?SkStringPrintf@@YA?AVSkString@@PEBDZZ
?SkSwapRB@@YAXPEAIPEBIH@Z
?SkTypeface_SetEnsureLOGFONTAccessibleProc@@YAXP6AXAEBUtagLOGFONTA@@@Z@Z
?SkWriteICCProfile@@YA?AV?$sk_sp@VSkData@@@@AEBUskcms_TransferFunction@@AEBUskcms_Matrix3x3@@@Z
?SkWriteICCProfile@@YA?AV?$sk_sp@VSkData@@@@PEBUskcms_ICCProfile@@PEBD@Z
?SkYUVColorSpaceIsLimitedRange@@YA_NW4SkYUVColorSpace@@@Z
?Skew@SkMatrix@@SA?AV1@MM@Z
?SpotLitDiffuse@SkImageFilters@@SA?AV?$sk_sp@VSkImageFilter@@@@AEBUSkPoint3@@0MMIMMV2@AEBUCropRect@1@@Z
?SpotLitSpecular@SkImageFilters@@SA?AV?$sk_sp@VSkImageFilter@@@@AEBUSkPoint3@@0MMIMMMV2@AEBUCropRect@1@@Z
?StreamIsSKP@SkPicture@@CA_NPEAVSkStream@@PEAUSkPictInfo@@@Z
?SubsamplingFactors@SkYUVAInfo@@SA?AV?$tuple@HH@std@@W4Subsampling@1@@Z
?SubsetTextureFrom@SkImages@@YA?AV?$sk_sp@VSkImage@@@@PEAVGrDirectContext@@PEBVSkImage@@AEBUSkIRect@@@Z
?SwapWidthHeight@SkPixmapUtils@@YA?AUSkImageInfo@@AEBU2@@Z
?TL@SkRect@@QEBA?AUSkPoint@@XZ
?TODO@Recorder@skcpu@@SAPEAV12@XZ
?TR@SkRect@@QEBA?AUSkPoint@@XZ
?Table@SkColorFilters@@SA?AV?$sk_sp@VSkColorFilter@@@@QEBE@Z
?Table@SkColorFilters@@SA?AV?$sk_sp@VSkColorFilter@@@@V?$sk_sp@VSkColorTable@@@@@Z
?TableARGB@SkColorFilters@@SA?AV?$sk_sp@VSkColorFilter@@@@QEBE000@Z
?TestingOnly_Equals@GrBackendRenderTarget@@SA_NAEBV1@0@Z
?TestingOnly_Equals@GrBackendTexture@@SA_NAEBV1@0@Z
?TextureFromCompressedTexture@SkImages@@YA?AV?$sk_sp@VSkImage@@@@PEAVGrRecordingContext@@AEBVGrBackendTexture@@W4GrSurfaceOrigin@@W4SkAlphaType@@V?$sk_sp@VSkColorSpace@@@@P6AXPEAX@Z5@Z
?TextureFromCompressedTextureData@SkImages@@YA?AV?$sk_sp@VSkImage@@@@PEAVGrDirectContext@@V?$sk_sp@VSkData@@@@HHW4SkTextureCompressionType@@W4Mipmapped@skgpu@@W4Protected@7@@Z
?TextureFromImage@SkImages@@YA?AV?$sk_sp@VSkImage@@@@PEAVGrDirectContext@@PEBVSkImage@@W4Mipmapped@skgpu@@W4Budgeted@6@@Z
?TextureFromYUVAPixmaps@SkImages@@YA?AV?$sk_sp@VSkImage@@@@PEAVGrRecordingContext@@AEBVSkYUVAPixmaps@@W4Mipmapped@skgpu@@_N@Z
?TextureFromYUVAPixmaps@SkImages@@YA?AV?$sk_sp@VSkImage@@@@PEAVGrRecordingContext@@AEBVSkYUVAPixmaps@@W4Mipmapped@skgpu@@_NV?$sk_sp@VSkColorSpace@@@@@Z
?TextureFromYUVATextures@SkImages@@YA?AV?$sk_sp@VSkImage@@@@PEAVGrRecordingContext@@AEBVGrYUVABackendTextures@@@Z
?TextureFromYUVATextures@SkImages@@YA?AV?$sk_sp@VSkImage@@@@PEAVGrRecordingContext@@AEBVGrYUVABackendTextures@@V?$sk_sp@VSkColorSpace@@@@P6AXPEAX@Z3@Z
?TightRunBounds@SkTextBlobBuilder@@CA?AUSkRect@@AEBVRunRecord@SkTextBlob@@@Z
?Tile@SkImageFilters@@SA?AV?$sk_sp@VSkImageFilter@@@@AEBUSkRect@@0V2@@Z
?ToSVGString@SkParsePath@@SA?AVSkString@@AEBVSkPath@@W4PathEncoding@1@@Z
?ToUTF16@SkUTF@@YA_KHQEAG@Z
?ToUTF8@SkUTF@@YA_KHQEAD@Z
?Trans_pts@SkMatrix@@CAXAEBV1@QEAUSkPoint@@QEBU2@H@Z
?Translate@SkM44@@SA?AV1@MMM@Z
?Translate@SkMatrix@@SA?AV1@MM@Z
?Translate@SkMatrix@@SA?AV1@USkIPoint@@@Z
?Translate@SkMatrix@@SA?AV1@USkPoint@@@Z
?UTF16ToUTF8@SkUTF@@YAHQEADHQEBG_K@Z
?UTF8ToUTF16@SkUTF@@YAHQEAGHQEBD_K@Z
?Valid@SkLatticeIter@@SA_NHHAEBULattice@SkCanvas@@@Z
?Valid@SkLatticeIter@@SA_NHHAEBUSkIRect@@@Z
?WrapBackendRenderTarget@SkSurfaces@@YA?AV?$sk_sp@VSkSurface@@@@PEAVGrRecordingContext@@AEBVGrBackendRenderTarget@@W4GrSurfaceOrigin@@W4SkColorType@@V?$sk_sp@VSkColorSpace@@@@PEBVSkSurfaceProps@@P6AXPEAX@Z6@Z
?WrapBackendTexture@SkSurfaces@@YA?AV?$sk_sp@VSkSurface@@@@PEAVGrRecordingContext@@AEBVGrBackendTexture@@W4GrSurfaceOrigin@@HW4SkColorType@@V?$sk_sp@VSkColorSpace@@@@PEBVSkSurfaceProps@@P6AXPEAX@Z6@Z
?WrapPixels@SkSurfaces@@YA?AV?$sk_sp@VSkSurface@@@@AEBUSkImageInfo@@PEAX_KP6AX11@Z1PEBVSkSurfaceProps@@@Z
?WrapPixels@SkSurfaces@@YA?AV?$sk_sp@VSkSurface@@@@AEBUSkImageInfo@@PEAX_KPEBVSkSurfaceProps@@@Z
?YUVtoRGB@SkColorMatrix@@SA?AV1@W4SkYUVColorSpace@@@Z
?abandonContext@GrContextThreadSafeProxy@@AEAAXXZ
?abandonContext@GrDirectContext@@UEAAXXZ
?abandonContext@GrImageContext@@MEAAXXZ
?abandoned@GrContextThreadSafeProxy@@AEBA_NXZ
?abandoned@GrDirectContext@@UEAA_NXZ
?abandoned@GrImageContext@@MEAA_NXZ
?abort@SkDocument@@QEAAXXZ
?aboutToDraw@SkCanvas@@AEAA?AV?$optional@VAutoLayerForImageFilter@@@std@@AEBVSkPaint@@PEBUSkRect@@@Z
?aboutToDraw@SkCanvas@@AEAA?AV?$optional@VAutoLayerForImageFilter@@@std@@AEBVSkPaint@@PEBUSkRect@@V?$SkEnumBitMask@W4PredrawFlags@SkCanvas@@@@@Z
?accessTopLayerPixels@SkCanvas@@QEAAPEAXPEAUSkImageInfo@@PEA_KPEAUSkIPoint@@@Z
?accessTopRasterHandle@SkCanvas@@QEBAPEAXXZ
?add@SkExecutor@@UEAAXV?$function@$$A6AXXZ@std@@H@Z
?add@SkOpBuilder@@QEAAXAEBVSkPath@@W4SkPathOp@@@Z
?addArc@SkPathBuilder@@QEAAAEAV1@AEBUSkRect@@MM@Z
?addBoundaryPath@SkRegion@@QEBA_NPEAVSkPathBuilder@@@Z
?addCanvas@SkNWayCanvas@@UEAAXPEAVSkCanvas@@@Z
?addCircle@SkPathBuilder@@QEAAAEAV1@MMMW4SkPathDirection@@@Z
?addGenIDChangeListener@SkPathRef@@QEAAXV?$sk_sp@VSkIDChangeListener@@@@@Z
?addGenIDChangeListener@SkPixelRef@@QEAAXV?$sk_sp@VSkIDChangeListener@@@@@Z
?addLine@SkPathBuilder@@QEAAAEAV1@USkPoint@@0@Z
?addOval@SkPathBuilder@@QEAAAEAV1@AEBUSkRect@@W4SkPathDirection@@@Z
?addOval@SkPathBuilder@@QEAAAEAV1@AEBUSkRect@@W4SkPathDirection@@I@Z
?addPath@SkPathBuilder@@QEAAAEAV1@AEBVSkPath@@AEBVSkMatrix@@W4AddPathMode@2@@Z
?addPath@SkPathBuilder@@QEAAAEAV1@AEBVSkPath@@MMW4AddPathMode@2@@Z
?addPath@SkPathBuilder@@QEAAAEAV1@AEBVSkPath@@W4AddPathMode@2@@Z
?addPolygon@SkPathBuilder@@QEAAAEAV1@V?$SkSpan@$$CBUSkPoint@@@@_N@Z
?addRRect@SkPathBuilder@@QEAAAEAV1@AEBVSkRRect@@W4SkPathDirection@@@Z
?addRRect@SkPathBuilder@@QEAAAEAV1@AEBVSkRRect@@W4SkPathDirection@@I@Z
?addRaw@SkPathBuilder@@QEAAAEAV1@AEBUSkPathRaw@@@Z
?addRect@SkPathBuilder@@QEAAAEAV1@AEBUSkRect@@W4SkPathDirection@@@Z
?addRect@SkPathBuilder@@QEAAAEAV1@AEBUSkRect@@W4SkPathDirection@@I@Z
?addr16@SkPixmap@@QEBAPEBGHH@Z
?addr16@SkPixmap@@QEBAPEBGXZ
?addr32@SkPixmap@@QEBAPEBIHH@Z
?addr32@SkPixmap@@QEBAPEBIXZ
?addr64@SkPixmap@@QEBAPEB_KHH@Z
?addr64@SkPixmap@@QEBAPEB_KXZ
?addr8@SkPixmap@@QEBAPEBEHH@Z
?addr8@SkPixmap@@QEBAPEBEXZ
?addr@SkPixmap@@QEBAPEBXHH@Z
?addr@SkPixmap@@QEBAPEBXXZ
?addrF16@SkPixmap@@QEBAPEBGHH@Z
?addrF16@SkPixmap@@QEBAPEBGXZ
?address@SkTDStorage@@AEAAPEAXH@Z
?adjust@SkIRect@@QEAAXHHHH@Z
?allocBitmap@SkRasterHandleAllocator@@AEAAPEAXAEBUSkImageInfo@@PEAVSkBitmap@@@Z
?allocInternal@SkTextBlobBuilder@@AEAAXAEBVSkFont@@W4GlyphPositioning@SkTextBlob@@HHUSkPoint@@PEBUSkRect@@@Z
?allocN32Pixels@SkBitmap@@QEAAXHH_N@Z
?allocPixelRef@HeapAllocator@SkBitmap@@UEAA_NPEAV2@@Z
?allocPixels@SkBitmap@@QEAAXAEBUSkImageInfo@@@Z
?allocPixels@SkBitmap@@QEAAXAEBUSkImageInfo@@_K@Z
?allocPixels@SkBitmap@@QEAAXPEAVAllocator@1@@Z
?allocPixels@SkBitmap@@QEAAXXZ
?allocPixelsFlags@SkBitmap@@QEAAXAEBUSkImageInfo@@I@Z
?allocRun@SkTextBlobBuilder@@QEAAAEBURunBuffer@1@AEBVSkFont@@HMMPEBUSkRect@@@Z
?allocRunPos@SkTextBlobBuilder@@QEAAAEBURunBuffer@1@AEBVSkFont@@HPEBUSkRect@@@Z
?allocRunPosH@SkTextBlobBuilder@@QEAAAEBURunBuffer@1@AEBVSkFont@@HMPEBUSkRect@@@Z
?allocRunRSXform@SkTextBlobBuilder@@QEAAAEBURunBuffer@1@AEBVSkFont@@H@Z
?allocRunText@SkTextBlobBuilder@@QEAAAEBURunBuffer@1@AEBVSkFont@@HMMHPEBUSkRect@@@Z
?allocRunTextPos@SkTextBlobBuilder@@QEAAAEBURunBuffer@1@AEBVSkFont@@HHPEBUSkRect@@@Z
?allocRunTextPosH@SkTextBlobBuilder@@QEAAAEBURunBuffer@1@AEBVSkFont@@HMHPEBUSkRect@@@Z
?allocRunTextRSXform@SkTextBlobBuilder@@QEAAAEBURunBuffer@1@AEBVSkFont@@HHPEBUSkRect@@@Z
?allocate@SkContainerAllocator@@QEAA?AV?$SkSpan@W4byte@std@@@@HN@Z
?allocateBlock@SkDeque@@AEAAPEAUBlock@1@H@Z
?allocateRuns@SkRegion@@AEAAXAEBURunHead@1@@Z
?allocateRuns@SkRegion@@AEAAXH@Z
?allocateRuns@SkRegion@@AEAAXHHH@Z
?allowBlender@SkRuntimeEffect@@QEBA_NXZ
?allowColorFilter@SkRuntimeEffect@@QEBA_NXZ
?allowShader@SkRuntimeEffect@@QEBA_NXZ
?alphaTable@SkColorTable@@QEBAPEBEXZ
?alphaType@SkBitmap@@QEBA?AW4SkAlphaType@@XZ
?alphaType@SkColorInfo@@QEBA?AW4SkAlphaType@@XZ
?alphaType@SkImage@@QEBA?AW4SkAlphaType@@XZ
?alphaType@SkImageInfo@@QEBA?AW4SkAlphaType@@XZ
?alphaType@SkPixmap@@QEBA?AW4SkAlphaType@@XZ
?alwaysOpaque@SkRuntimeEffect@@AEBA_NXZ
?androidFramework_isClipAA@SkCanvas@@AEBA_NXZ
?androidFramework_setDeviceClipRestriction@SkCanvas@@QEAAXAEBUSkIRect@@@Z
?android_only_reset@SkPixelRef@@IEAAXHH_K@Z
?append@SkOrderedFontMgr@@QEAAXV?$sk_sp@VSkFontMgr@@@@@Z
?append@SkString@@QEAAXAEBV1@@Z
?append@SkString@@QEAAXQEBD@Z
?append@SkString@@QEAAXQEBD_K@Z
?append@SkString@@QEAAXV?$basic_string_view@DU?$char_traits@D@std@@@std@@@Z
?append@SkTDStorage@@QEAAPEAXPEBXH@Z
?append@SkTDStorage@@QEAAXH@Z
?append@SkTDStorage@@QEAAXXZ
?appendHex@SkString@@QEAAXIH@Z
?appendS32@SkString@@QEAAXH@Z
?appendS64@SkString@@QEAAX_JH@Z
?appendScalar@SkString@@QEAAXM@Z
?appendU32@SkString@@QEAAXI@Z
?appendU64@SkString@@QEAAX_KH@Z
?appendUnichar@SkString@@QEAAXH@Z
?appendVAList@SkString@@QEAAXQEBDPEAD@Z
?appendf@SkString@@QEAAXQEBDZZ
?applyColorXform@SkCodec@@IEBAXPEAXPEBXH@Z
?applyOverrides@GrDriverBugWorkarounds@@QEAAXAEBV1@@Z
?applyToCanvas@Sk3DView@@QEBAXPEAVSkCanvas@@@Z
?applyToPaint@SkStrokeRec@@QEBAXPEAVSkPaint@@@Z
?applyToPath@SkStrokeRec@@QEBA_NPEAVSkPathBuilder@@AEBVSkPath@@@Z
?approximateBytesUsed@SkDrawable@@QEAA_KXZ
?approximateBytesUsed@SkPath@@QEBA_KXZ
?approximateBytesUsed@SkPathRef@@QEBA_KXZ
?approximateSize@SkVertices@@QEBA_KXZ
?arcTo@SkPathBuilder@@QEAAAEAV1@AEBUSkRect@@MM_N@Z
?arcTo@SkPathBuilder@@QEAAAEAV1@USkPoint@@0M@Z
?arcTo@SkPathBuilder@@QEAAAEAV1@USkPoint@@MW4ArcSize@1@W4SkPathDirection@@0@Z
?asAColorFilter@SkImageFilter@@QEBA_NPEAPEAVSkColorFilter@@@Z
?asAColorMatrix@SkColorFilter@@QEBA_NQEAM@Z
?asAColorMode@SkColorFilter@@QEBA_NPEAIPEAW4SkBlendMode@@@Z
?asAffine@SkMatrix@@QEBA_NQEAM@Z
?asBlendMode@SkPaint@@QEBA?AV?$optional@W4SkBlendMode@@@std@@XZ
?asColorFilter@SkImageFilter@@QEBA_NPEAPEAVSkColorFilter@@@Z
?asDirectContext@GrDirectContext@@MEAAPEAV1@XZ
?asImage@SkBitmap@@QEBA?AV?$sk_sp@VSkImage@@@@XZ
?asInt32s@SkIRect@@QEBAPEBHXZ
?asLegacyBitmap@SkImage@@QEBA_NPEAVSkBitmap@@W4LegacyBitmapMode@1@@Z
?asM33@SkM44@@QEBA?AVSkMatrix@@XZ
?asMockColorType@GrBackendFormat@@QEBA?AW4GrColorType@@XZ
?asMockCompressionType@GrBackendFormat@@QEBA?AW4SkTextureCompressionType@@XZ
?asRecorder@GrRecordingContext@@QEAAPEAVSkRecorder@@XZ
?asScalars@SkRect@@QEBAPEBMXZ
?asSkBigPicture@SkPicture@@EEBAPEBVSkBigPicture@@XZ
?asyncRescaleAndReadPixels@SkImage@@QEBAXAEBUSkImageInfo@@AEBUSkIRect@@W4RescaleGamma@1@W4RescaleMode@1@P6AXPEAXV?$unique_ptr@$$CBVAsyncReadResult@SkImage@@U?$default_delete@$$CBVAsyncReadResult@SkImage@@@std@@@std@@@Z4@Z
?asyncRescaleAndReadPixels@SkSurface@@QEAAXAEBUSkImageInfo@@AEBUSkIRect@@W4RescaleGamma@SkImage@@W4RescaleMode@5@P6AXPEAXV?$unique_ptr@$$CBVAsyncReadResult@SkImage@@U?$default_delete@$$CBVAsyncReadResult@SkImage@@@std@@@std@@@Z4@Z
?asyncRescaleAndReadPixelsYUV420@SkImage@@QEBAXW4SkYUVColorSpace@@V?$sk_sp@VSkColorSpace@@@@AEBUSkIRect@@AEBUSkISize@@W4RescaleGamma@1@W4RescaleMode@1@P6AXPEAXV?$unique_ptr@$$CBVAsyncReadResult@SkImage@@U?$default_delete@$$CBVAsyncReadResult@SkImage@@@std@@@std@@@Z6@Z
?asyncRescaleAndReadPixelsYUV420@SkSurface@@QEAAXW4SkYUVColorSpace@@V?$sk_sp@VSkColorSpace@@@@AEBUSkIRect@@AEBUSkISize@@W4RescaleGamma@SkImage@@W4RescaleMode@7@P6AXPEAXV?$unique_ptr@$$CBVAsyncReadResult@SkImage@@U?$default_delete@$$CBVAsyncReadResult@SkImage@@@std@@@std@@@Z6@Z
?asyncRescaleAndReadPixelsYUVA420@SkImage@@QEBAXW4SkYUVColorSpace@@V?$sk_sp@VSkColorSpace@@@@AEBUSkIRect@@AEBUSkISize@@W4RescaleGamma@1@W4RescaleMode@1@P6AXPEAXV?$unique_ptr@$$CBVAsyncReadResult@SkImage@@U?$default_delete@$$CBVAsyncReadResult@SkImage@@@std@@@std@@@Z6@Z
?asyncRescaleAndReadPixelsYUVA420@SkSurface@@QEAAXW4SkYUVColorSpace@@V?$sk_sp@VSkColorSpace@@@@AEBUSkIRect@@AEBUSkISize@@W4RescaleGamma@SkImage@@W4RescaleMode@7@P6AXPEAXV?$unique_ptr@$$CBVAsyncReadResult@SkImage@@U?$default_delete@$$CBVAsyncReadResult@SkImage@@@std@@@std@@@Z6@Z
?at@SkDataTable@@QEBAPEBXHPEA_K@Z
?atPoint@SkPathRef@@QEBA?AUSkPoint@@H@Z
?atSize@SkDataTable@@QEBA_KH@Z
?atStr@SkDataTable@@QEBAPEBDH@Z
?atVerb@SkPathRef@@QEBA?AW4SkPathVerb@@H@Z
?atomic_conditional_acquire_strong_ref@SkWeakRefCnt@@AEBAHXZ
?attemptBlurredRRectDraw@SkCanvas@@AEAA?AV?$optional@VAutoLayerForImageFilter@@@std@@AEBVSkRRect@@PEBVSkBlurMaskFilterImpl@@AEBVSkPaint@@V?$SkEnumBitMask@W4PredrawFlags@SkCanvas@@@@@Z
?attributes@SkMeshSpecification@@QEBA?AV?$SkSpan@$$CBUAttribute@SkMeshSpecification@@@@XZ
?autoClose@Iter@SkPath@@AEAA?AW4SkPathVerb@@QEAUSkPoint@@@Z
?back@SkDeque@@QEAAPEAXXZ
?back@SkDeque@@QEBAPEBXXZ
?backend@GrBackendFormat@@QEBA?AW4GrBackendApi@@XZ
?backend@GrBackendRenderTarget@@QEBA?AW4GrBackendApi@@XZ
?backend@GrBackendSemaphore@@QEBA?AW4GrBackendApi@@XZ
?backend@GrBackendTexture@@QEBA?AW4GrBackendApi@@XZ
?backend@GrContext_Base@@QEBA?AW4GrBackendApi@@XZ
?backend@MutableTextureState@skgpu@@QEBA?AW4BackendApi@2@XZ
?backendFormat@GrSurfaceCharacterization@@QEBAAEBVGrBackendFormat@@XZ
?backendTexture@GrPromiseImageTexture@@QEBA?AVGrBackendTexture@@XZ
?backport@SkPicture@@AEBAPEAVSkPictureData@@XZ
?baseRecorder@SkCanvas@@UEBAPEAVSkRecorder@@XZ
?baseRecorder@SkSurface@@QEBAPEAVSkRecorder@@XZ
?begin@SkContourMeasure@@QEBA?AVForwardVerbIterator@1@XZ
?begin@SkString@@QEAAPEADXZ
?begin@SkString@@QEBAPEBDXZ
?beginPage@SkDocument@@QEAAPEAVSkCanvas@@MMPEBUSkRect@@@Z
?beginRecording@SkPictureRecorder@@QEAAPEAVSkCanvas@@AEBUSkRect@@PEAVSkBBHFactory@@@Z
?beginRecording@SkPictureRecorder@@QEAAPEAVSkCanvas@@AEBUSkRect@@V?$sk_sp@VSkBBoxHierarchy@@@@@Z
?beginRecording@SkPictureRecorder@@QEAAPEAVSkCanvas@@MMPEAVSkBBHFactory@@@Z
?bitmap@SkColorTable@@AEBAAEBVSkBitmap@@XZ
?blender@ChildPtr@SkRuntimeEffect@@QEBAPEAVSkBlender@@XZ
?blueTable@SkColorTable@@QEBAPEBEXZ
?borrow@SkExecutor@@UEAAXXZ
?bottom@SkIRect@@QEBAHXZ
?bottom@SkRect@@QEBAMXZ
?bounds@SkBitmap@@QEBA?AUSkIRect@@XZ
?bounds@SkCodec@@QEBA?AUSkIRect@@XZ
?bounds@SkImage@@QEBA?AUSkIRect@@XZ
?bounds@SkImageInfo@@QEBA?AUSkIRect@@XZ
?bounds@SkMesh@@QEBA?AUSkRect@@XZ
?bounds@SkPixmap@@QEBA?AUSkIRect@@XZ
?bounds@SkTextBlob@@QEBAAEBUSkRect@@XZ
?bounds@SkVertices@@QEBAAEBUSkRect@@XZ
?byteSpan@SkData@@QEBA?AV?$SkSpan@$$CBE@@XZ
?bytes@SkData@@QEBAPEBEXZ
?bytes@SkTDStorage@@AEBA_KH@Z
?bytesPerPixel@SkBitmap@@QEBAHXZ
?bytesPerPixel@SkColorInfo@@QEBAHXZ
?bytesPerPixel@SkImageInfo@@QEBAHXZ
?bytesWritten@SkDynamicMemoryWStream@@UEBA_KXZ
?bytesWritten@SkFILEWStream@@UEBA_KXZ
?bytesWritten@SkNullWStream@@UEBA_KXZ
?c_str@SkString@@QEBAPEBDXZ
?cacheMaxResourceBytes@GrSurfaceCharacterization@@QEBA_KXZ
?calculateSizeOrDie@SkTDStorage@@AEAAHH@Z
?callGenIDChangeListeners@SkPathRef@@AEAAXXZ
?callGenIDChangeListeners@SkPixelRef@@AEAAXXZ
?canAttemptBlurredRRectDraw@SkCanvas@@AEBAPEBVSkBlurMaskFilterImpl@@AEBVSkPaint@@@Z
?canComputeFastBounds@SkImageFilter@@QEBA_NXZ
?canComputeFastBounds@SkPaint@@QEBA_NXZ
?canDetectNewVkPipelineCacheData@GrDirectContext@@QEBA_NXZ
?capabilities@SkSurface@@QEAA?AV?$sk_sp@$$CBVSkCapabilities@@@@XZ
?capacity@SkTDStorage@@QEBAHXZ
?center@SkRect@@QEBA?AUSkPoint@@XZ
?centerX@SkRect@@QEBAMXZ
?centerY@SkRect@@QEBAMXZ
?channelMask@GrBackendFormat@@QEBAIXZ
?characterization@GrDeferredDisplayList@@QEBAAEBVGrSurfaceCharacterization@@XZ
?characterization@GrDeferredDisplayListRecorder@@QEBAAEBVGrSurfaceCharacterization@@XZ
?characterize@SkSurface@@QEBA_NPEAVGrSurfaceCharacterization@@@Z
?checkAsyncWorkCompletion@GrDirectContext@@QEAAXXZ
?checkCornerContainment@SkRRect@@AEBA_NMM@Z
?checkForDeferredSave@SkCanvas@@AEAAXXZ
?child@SkRuntimeEffectBuilder@@QEAA?AUBuilderChild@1@V?$basic_string_view@DU?$char_traits@D@std@@@std@@@Z
?children@SkMesh@@QEBA?AV?$SkSpan@$$CBVChildPtr@SkRuntimeEffect@@@@XZ
?children@SkMeshSpecification@@QEBA?AV?$SkSpan@$$CBUChild@SkRuntimeEffect@@@@XZ
?children@SkRuntimeEffect@@QEBA?AV?$SkSpan@$$CBUChild@SkRuntimeEffect@@@@XZ
?children@SkRuntimeEffectBuilder@@QEBA?AV?$SkSpan@$$CBVChildPtr@SkRuntimeEffect@@@@XZ
?chopIntoQuadsPOW2@SkConic@@QEBAHQEAUSkPoint@@H@Z
?cleanup@GrBackendRenderTarget@@AEAAXXZ
?cleanup@GrBackendTexture@@AEAAXXZ
?cleanupContext@Compiler@SkSL@@AEAAXXZ
?clear@SkCanvas@@QEAAXAEBU?$SkRGBA4f@$02@@@Z
?clear@SkCanvas@@QEAAXI@Z
?clear@SkTDStorage@@QEAAXXZ
?clearTypeMask@SkMatrix@@AEAAXH@Z
?clipIRect@SkCanvas@@QEAAXAEBUSkIRect@@W4SkClipOp@@@Z
?clipPath@SkCanvas@@QEAAXAEBVSkPath@@W4SkClipOp@@@Z
?clipPath@SkCanvas@@QEAAXAEBVSkPath@@W4SkClipOp@@_N@Z
?clipPath@SkCanvas@@QEAAXAEBVSkPath@@_N@Z
?clipRRect@SkCanvas@@QEAAXAEBVSkRRect@@W4SkClipOp@@@Z
?clipRRect@SkCanvas@@QEAAXAEBVSkRRect@@W4SkClipOp@@_N@Z
?clipRRect@SkCanvas@@QEAAXAEBVSkRRect@@_N@Z
?clipRect@SkCanvas@@QEAAXAEBUSkRect@@W4SkClipOp@@@Z
?clipRect@SkCanvas@@QEAAXAEBUSkRect@@W4SkClipOp@@_N@Z
?clipRect@SkCanvas@@QEAAXAEBUSkRect@@_N@Z
?clipRegion@SkCanvas@@QEAAXAEBVSkRegion@@W4SkClipOp@@@Z
?clipShader@SkCanvas@@QEAAXV?$sk_sp@VSkShader@@@@W4SkClipOp@@@Z
?cloneWithPixelGeometry@SkSurfaceProps@@QEBA?AV1@W4SkPixelGeometry@@@Z
?close@SkDocument@@QEAAXXZ
?close@SkFILEStream@@QEAAXXZ
?close@SkPathBuilder@@QEAAAEAV1@XZ
?clusters@SkTextBlobRunIterator@@QEBAPEAIXZ
?codec@SkAndroidCodec@@QEBAPEAVSkCodec@@XZ
?col@SkM44@@QEBA?AUSkV4@@H@Z
?colorFilter@ChildPtr@SkRuntimeEffect@@QEBAPEAVSkColorFilter@@XZ
?colorInfo@SkImageInfo@@QEBAAEBVSkColorInfo@@XZ
?colorSpace@GrSurfaceCharacterization@@QEBAPEAVSkColorSpace@@XZ
?colorSpace@SkBitmap@@QEBAPEAVSkColorSpace@@XZ
?colorSpace@SkColorInfo@@QEBAPEAVSkColorSpace@@XZ
?colorSpace@SkImage@@QEBAPEAVSkColorSpace@@XZ
?colorSpace@SkImageInfo@@QEBAPEAVSkColorSpace@@XZ
?colorSpace@SkMeshSpecification@@QEBAPEAVSkColorSpace@@XZ
?colorSpace@SkPixmap@@QEBAPEAVSkColorSpace@@XZ
?colorType@GrSurfaceCharacterization@@QEBA?AW4SkColorType@@XZ
?colorType@SkBitmap@@QEBA?AW4SkColorType@@XZ
?colorType@SkColorInfo@@QEBA?AW4SkColorType@@XZ
?colorType@SkImage@@QEBA?AW4SkColorType@@XZ
?colorType@SkImageInfo@@QEBA?AW4SkColorType@@XZ
?colorType@SkPixmap@@QEBA?AW4SkColorType@@XZ
?colorTypeSupportedAsImage@GrRecordingContext@@QEBA_NW4SkColorType@@@Z
?colorTypeSupportedAsSurface@GrRecordingContext@@QEBA_NW4SkColorType@@@Z
?colorXform@SkCodec@@IEBA_NXZ
?colors@Builder@SkVertices@@QEAAPEAIXZ
?commonReset@SkPathRef@@AEAAXXZ
?compile@ProgramIterator@GrDeferredDisplayList@@QEAA_NXZ
?compileError@ShaderErrorHandler@skgpu@@UEAAXPEBD0@Z
?compileError@ShaderErrorHandler@skgpu@@UEAAXPEBD0_N@Z
?compileModule@Compiler@SkSL@@QEAA?AV?$unique_ptr@UModule@SkSL@@U?$default_delete@UModule@SkSL@@@std@@@std@@W4ProgramKind@2@W4ModuleType@2@V?$basic_string@DU?$char_traits@D@std@@V?$allocator@D@2@@4@PEBUModule@2@_N@Z
?compressedBackendFormat@GrContextThreadSafeProxy@@QEBA?AVGrBackendFormat@@W4SkTextureCompressionType@@@Z
?compressedBackendFormat@GrContext_Base@@QEBA?AVGrBackendFormat@@W4SkTextureCompressionType@@@Z
?computeBounds@SkPathBuilder@@QEBA?AUSkRect@@XZ
?computeBounds@SkPathRef@@AEBAXXZ
?computeByteSize@SkBitmap@@QEBA_KXZ
?computeByteSize@SkImageInfo@@QEBA_K_K@Z
?computeByteSize@SkPixmap@@QEBA_KXZ
?computeConvexity@SkPath@@AEBA?AW4SkPathConvexity@@XZ
?computeDeviceClipBounds@SkCanvas@@AEBA?AUSkRect@@_N@Z
?computeFastBounds@SkImageFilter@@UEBA?AUSkRect@@AEBU2@@Z
?computeFastBounds@SkPaint@@QEBAAEBUSkRect@@AEBU2@PEAU2@@Z
?computeFastStrokeBounds@SkPaint@@QEBAAEBUSkRect@@AEBU2@PEAU2@@Z
?computeFiniteBounds@SkPathBuilder@@QEBA?AV?$optional@USkRect@@@std@@XZ
?computeFromT@SkCubicMap@@QEBA?AUSkPoint@@M@Z
?computeIsOpaque@SkPixmap@@QEBA_NXZ
?computeLazyDstFields@SkColorSpace@@AEBAXXZ
?computeMinByteSize@SkImageInfo@@QEBA_KXZ
?computeNextFrame@SkAnimatedImage@@AEAAHHPEA_N@Z
?computeOffset@SkImageInfo@@QEBA_KHH_K@Z
?computeOutputAlphaType@SkAndroidCodec@@QEAA?AW4SkAlphaType@@_N@Z
?computeOutputColorSpace@SkAndroidCodec@@QEAA?AV?$sk_sp@VSkColorSpace@@@@W4SkColorType@@V2@@Z
?computeOutputColorType@SkAndroidCodec@@QEAA?AW4SkColorType@@W42@@Z
?computePerspectiveTypeMask@SkMatrix@@AEBAEXZ
?computeQuadPOW2@SkConic@@QEBAHM@Z
?computeRegionComplexity@SkRegion@@QEBAHXZ
?computeSampleSize@SkAndroidCodec@@QEBAHPEAUSkISize@@@Z
?computeTightBounds@SkPath@@QEBA?AUSkRect@@XZ
?computeTightBounds@SkPathBuilder@@QEBA?AV?$optional@USkRect@@@std@@XZ
?computeTotalBytes@SkYUVAInfo@@QEBA_KQEB_KQEA_K@Z
?computeTotalBytes@SkYUVAPixmapInfo@@QEBA_KQEA_K@Z
?computeType@SkRRect@@AEAAXXZ
?computeTypeMask@SkMatrix@@AEBAEXZ
?computeYFromX@SkCubicMap@@QEBAMM@Z
?concat@SkCanvas@@QEAAXAEBVSkM44@@@Z
?concat@SkCanvas@@QEAAXAEBVSkMatrix@@@Z
?conicSpan@SkPathRef@@QEBA?AV?$SkSpan@$$CBM@@XZ
?conicTo@SkPathBuilder@@QEAAAEAV1@MMMMM@Z
?conicTo@SkPathBuilder@@QEAAAEAV1@QEBUSkPoint@@M@Z
?conicTo@SkPathBuilder@@QEAAAEAV1@USkPoint@@0M@Z
?conicWeight@Iter@SkPath@@QEBAMXZ
?conicWeight@RawIter@SkPath@@QEBAMXZ
?conicWeights@SkPath@@QEBA?AV?$SkSpan@$$CBM@@XZ
?conicWeights@SkPathBuilder@@QEBA?AV?$SkSpan@$$CBM@@XZ
?conicWeights@SkPathRef@@QEBAPEBMXZ
?conicWeightsEnd@SkPathRef@@QEBAPEBMXZ
?conservativelyContainsRect@SkPath@@QEBA_NAEBUSkRect@@@Z
?contains@SkIRect@@QEBA_NAEBU1@@Z
?contains@SkIRect@@QEBA_NAEBUSkRect@@@Z
?contains@SkIRect@@QEBA_NHH@Z
?contains@SkPath@@QEBA_NMM@Z
?contains@SkPath@@QEBA_NUSkPoint@@@Z
?contains@SkPathBuilder@@QEBA_NUSkPoint@@@Z
?contains@SkRRect@@QEBA_NAEBUSkRect@@@Z
?contains@SkRect@@QEBA_NAEBU1@@Z
?contains@SkRect@@QEBA_NAEBUSkIRect@@@Z
?contains@SkRect@@QEBA_NMM@Z
?contains@SkRegion@@QEBA_NAEBUSkIRect@@@Z
?contains@SkRegion@@QEBA_NAEBV1@@Z
?contains@SkRegion@@QEBA_NHH@Z
?contains@SkString@@QEBA_ND@Z
?contains@SkString@@QEBA_NQEBD@Z
?containsNoEmptyCheck@SkIRect@@QEBA_NAEBU1@@Z
?contendedAcquire@SkSpinlock@@AEAAXXZ
?context@Compiler@SkSL@@QEBAAEAVContext@2@XZ
?contextInfo@GrSurfaceCharacterization@@QEBAPEAVGrContextThreadSafeProxy@@XZ
?conversionSupported@SkCodec@@MEAA_NAEBUSkImageInfo@@_N1@Z
?convertBlobToSlug@SkCanvas@@AEAA?AV?$sk_sp@VSlug@gpu@sktext@@@@AEBVSkTextBlob@@USkPoint@@AEBVSkPaint@@@Z
?convertProgram@Compiler@SkSL@@QEAA?AV?$unique_ptr@UProgram@SkSL@@U?$default_delete@UProgram@SkSL@@@std@@@std@@W4ProgramKind@2@V?$basic_string@DU?$char_traits@D@std@@V?$allocator@D@2@@4@AEBUProgramSettings@2@@Z
?copy@SkPathRef@@AEAAXAEBV1@HHH@Z
?copyRange@SkData@@QEBA_K_K0PEAX@Z
?copySrc@SkTDStorage@@AEAAXHPEBXH@Z
?copySubset@SkData@@QEBA?AV?$sk_sp@VSkData@@@@_K0@Z
?copyTableData@SkTypeface@@QEBA?AV?$sk_sp@VSkData@@@@I@Z
?copyTo@SkDynamicMemoryWStream@@QEBAXPEAX@Z
?copyToAndReset@SkDynamicMemoryWStream@@QEAAXPEAX@Z
?copyToQuad@SkRect@@QEBAXV?$SkSpan@USkPoint@@@@W4SkPathDirection@@@Z
?count@SkDataTable@@QEBAHXZ
?count@SkDeque@@QEBAHXZ
?countFamilies@SkFontMgr@@QEBAHXZ
?countGlyphs@SkTypeface@@QEBAHXZ
?countInputs@SkImageFilter@@QEBAHXZ
?countPoints@SkPath@@QEBAHXZ
?countPoints@SkPathBuilder@@QEBAHXZ
?countPoints@SkPathRef@@QEBAHXZ
?countTables@SkTypeface@@QEBAHXZ
?countText@SkFont@@QEBA_KPEBX_KW4SkTextEncoding@@@Z
?countVerbs@SkPath@@QEBAHXZ
?countVerbs@SkPathRef@@QEBAHXZ
?countWeights@SkPathRef@@QEBAHXZ
?count_runtype_values@SkRegion@@AEBAHPEAH0@Z
?cpuRecorder@Recorder@skcpu@@UEAAPEAV12@XZ
?createBackendFormat@GrSurfaceCharacterization@@QEBA?AV1@W4SkColorType@@AEBVGrBackendFormat@@@Z
?createBackendTexture@GrDirectContext@@QEAA?AVGrBackendTexture@@AEBVSkPixmap@@W4GrSurfaceOrigin@@W4Renderable@skgpu@@W4Protected@6@P6AXPEAX@Z4V?$basic_string_view@DU?$char_traits@D@std@@@std@@@Z
?createBackendTexture@GrDirectContext@@QEAA?AVGrBackendTexture@@AEBVSkPixmap@@W4Renderable@skgpu@@W4Protected@5@P6AXPEAX@Z3V?$basic_string_view@DU?$char_traits@D@std@@@std@@@Z
?createBackendTexture@GrDirectContext@@QEAA?AVGrBackendTexture@@HHAEBVGrBackendFormat@@AEBU?$SkRGBA4f@$02@@W4Mipmapped@skgpu@@W4Renderable@6@W4Protected@6@P6AXPEAX@Z5V?$basic_string_view@DU?$char_traits@D@std@@@std@@@Z
?createBackendTexture@GrDirectContext@@QEAA?AVGrBackendTexture@@HHAEBVGrBackendFormat@@W4Mipmapped@skgpu@@W4Renderable@5@W4Protected@5@V?$basic_string_view@DU?$char_traits@D@std@@@std@@@Z
?createBackendTexture@GrDirectContext@@QEAA?AVGrBackendTexture@@HHW4SkColorType@@AEBU?$SkRGBA4f@$02@@W4Mipmapped@skgpu@@W4Renderable@6@W4Protected@6@P6AXPEAX@Z5V?$basic_string_view@DU?$char_traits@D@std@@@std@@@Z
?createBackendTexture@GrDirectContext@@QEAA?AVGrBackendTexture@@HHW4SkColorType@@W4Mipmapped@skgpu@@W4Renderable@5@W4Protected@5@V?$basic_string_view@DU?$char_traits@D@std@@@std@@@Z
?createBackendTexture@GrDirectContext@@QEAA?AVGrBackendTexture@@QEBVSkPixmap@@HW4GrSurfaceOrigin@@W4Renderable@skgpu@@W4Protected@6@P6AXPEAX@Z4V?$basic_string_view@DU?$char_traits@D@std@@@std@@@Z
?createBackendTexture@GrDirectContext@@QEAA?AVGrBackendTexture@@QEBVSkPixmap@@HW4Renderable@skgpu@@W4Protected@5@P6AXPEAX@Z3V?$basic_string_view@DU?$char_traits@D@std@@@std@@@Z
?createCaptureBreakpoint@Recorder@skcpu@@EEAAXPEAVSkSurface@@@Z
?createCharacterization@GrContextThreadSafeProxy@@QEAA?AVGrSurfaceCharacterization@@_KAEBUSkImageInfo@@AEBVGrBackendFormat@@HW4GrSurfaceOrigin@@AEBVSkSurfaceProps@@W4Mipmapped@skgpu@@_N6W4Protected@8@66@Z
?createColorSpace@GrSurfaceCharacterization@@QEBA?AV1@V?$sk_sp@VSkColorSpace@@@@@Z
?createCompressedBackendTexture@GrDirectContext@@QEAA?AVGrBackendTexture@@HHAEBVGrBackendFormat@@AEBU?$SkRGBA4f@$02@@W4Mipmapped@skgpu@@W4Protected@6@P6AXPEAX@Z4@Z
?createCompressedBackendTexture@GrDirectContext@@QEAA?AVGrBackendTexture@@HHAEBVGrBackendFormat@@PEBX_KW4Mipmapped@skgpu@@W4Protected@5@P6AXPEAX@Z5@Z
?createCompressedBackendTexture@GrDirectContext@@QEAA?AVGrBackendTexture@@HHW4SkTextureCompressionType@@AEBU?$SkRGBA4f@$02@@W4Mipmapped@skgpu@@W4Protected@6@P6AXPEAX@Z4@Z
?createCompressedBackendTexture@GrDirectContext@@QEAA?AVGrBackendTexture@@HHW4SkTextureCompressionType@@PEBX_KW4Mipmapped@skgpu@@W4Protected@5@P6AXPEAX@Z5@Z
?createFBO0@GrSurfaceCharacterization@@QEBA?AV1@_N@Z
?createFamilyNameIterator@SkTypeface@@QEBAPEAVLocalizedStrings@1@XZ
?createHeader@SkPicture@@AEBA?AUSkPictInfo@@XZ
?createResized@GrSurfaceCharacterization@@QEBA?AV1@HH@Z
?createScalerContext@SkTypeface@@QEBA?AV?$unique_ptr@VSkScalerContext@@U?$default_delete@VSkScalerContext@@@std@@@std@@AEBUSkScalerContextEffects@@PEBVSkDescriptor@@@Z
?createStyleSet@SkFontMgr@@QEBA?AV?$sk_sp@VSkFontStyleSet@@@@H@Z
?cross@SkPoint3@@QEBA?AU1@AEBU1@@Z
?cross@SkPoint@@QEBAMAEBU1@@Z
?cross@SkV2@@QEBAMU1@@Z
?cross@SkV3@@QEBA?AU1@AEBU1@@Z
?cubicTo@SkPathBuilder@@QEAAAEAV1@MMMMMM@Z
?cubicTo@SkPathBuilder@@QEAAAEAV1@QEBUSkPoint@@@Z
?cubicTo@SkPathBuilder@@QEAAAEAV1@USkPoint@@00@Z
?currScanline@SkCodec@@IEBAHXZ
?currentFrameDuration@SkAnimatedImage@@QEAAHXZ
?currentMeasure@SkPathMeasure@@QEBAPEBVSkContourMeasure@@XZ
?data@SkData@@QEBAPEBXXZ
?data@SkString@@QEAAPEADXZ
?data@SkString@@QEBAPEBDXZ
?data@SkTDStorage@@QEAAPEAXXZ
?data@SkTDStorage@@QEBAPEBXXZ
?dataMatchesVerbs@SkPathRef@@QEBA_NXZ
?dataType@SkYUVAPixmapInfo@@QEBA?AW4DataType@1@XZ
?dataType@SkYUVAPixmaps@@QEBA?AW4DataType@SkYUVAPixmapInfo@@XZ
?decodeNextFrame@SkAnimatedImage@@QEAAHXZ
?decomposeScale@SkMatrix@@QEBA_NPEAUSkSize@@PEAV1@@Z
?defaultBackendFormat@GrContextThreadSafeProxy@@QEBA?AVGrBackendFormat@@W4SkColorType@@W4Renderable@skgpu@@@Z
?defaultBackendFormat@GrContext_Base@@QEBA?AVGrBackendFormat@@W4SkColorType@@W4Renderable@skgpu@@@Z
?deleteBackendTexture@GrDirectContext@@QEAAXAEBVGrBackendTexture@@@Z
?deref@?$SkNVRefCnt@VGrContextThreadSafeProxy@@@@QEBAXXZ
?deref@?$SkNVRefCnt@VGrPromiseImageTexture@@@@QEBAXXZ
?deref@?$SkNVRefCnt@VSkColorSpace@@@@QEBAXXZ
?deref@?$SkNVRefCnt@VSkData@@@@QEBAXXZ
?deref@?$SkNVRefCnt@VSkMeshSpecification@@@@QEBAXXZ
?deref@?$SkNVRefCnt@VSkPathRef@@@@QEBAXXZ
?deref@?$SkNVRefCnt@VSkTextBlob@@@@QEBAXXZ
?deref@?$SkNVRefCnt@VSkVertices@@@@QEBAXXZ
?desc@GrBackendFormat@@QEBA?AVGrColorFormatDesc@@XZ
?detach@Builder@SkVertices@@QEAA?AV?$sk_sp@VSkVertices@@@@XZ
?detach@GrDeferredDisplayListRecorder@@QEAA?AV?$sk_sp@VGrDeferredDisplayList@@@@XZ
?detach@SkCustomTypefaceBuilder@@QEAA?AV?$sk_sp@VSkTypeface@@@@XZ
?detach@SkPathBuilder@@QEAA?AVSkPath@@PEBVSkMatrix@@@Z
?detachAsData@SkDynamicMemoryWStream@@QEAA?AV?$sk_sp@VSkData@@@@XZ
?detachAsStream@SkDynamicMemoryWStream@@QEAA?AV?$unique_ptr@VSkStreamAsset@@U?$default_delete@VSkStreamAsset@@@std@@@std@@XZ
?detachAsVector@SkDynamicMemoryWStream@@QEAA?AV?$vector@EV?$allocator@E@std@@@std@@XZ
?detachData@SkPathBuilder@@QEAA?AV?$sk_sp@VSkPathData@@@@XZ
?diagnostic_only_getDiscardable@SkPixelRef@@UEBAPEAVSkDiscardableMemory@@XZ
?didConcat44@SkCanvas@@MEAAXAEBVSkM44@@@Z
?didConcat44@SkNWayCanvas@@MEAAXAEBVSkM44@@@Z
?didRestore@SkCanvas@@MEAAXXZ
?didScale@SkCanvas@@MEAAXMM@Z
?didScale@SkNWayCanvas@@MEAAXMM@Z
?didSetM44@SkCanvas@@MEAAXAEBVSkM44@@@Z
?didSetM44@SkNWayCanvas@@MEAAXAEBVSkM44@@@Z
?didTranslate@SkCanvas@@MEAAXMM@Z
?didTranslate@SkNWayCanvas@@MEAAXMM@Z
?dimensions@GrBackendRenderTarget@@QEBA?AUSkISize@@XZ
?dimensions@GrBackendTexture@@QEBA?AUSkISize@@XZ
?dimensions@GrSurfaceCharacterization@@QEBA?AUSkISize@@XZ
?dimensions@SkBitmap@@QEBA?AUSkISize@@XZ
?dimensions@SkCodec@@QEBA?AUSkISize@@XZ
?dimensions@SkImage@@QEBA?AUSkISize@@XZ
?dimensions@SkImageInfo@@QEBA?AUSkISize@@XZ
?dimensions@SkPixelRef@@QEBA?AUSkISize@@XZ
?dimensions@SkPixmap@@QEBA?AUSkISize@@XZ
?dimensions@SkYUVAInfo@@QEBA?AUSkISize@@XZ
?dimensionsSupported@SkCodec@@AEAA_NAEBUSkISize@@@Z
?directContextID@GrDirectContext@@QEBA?AVDirectContextID@1@XZ
?dirtyGenerationID@SkSurface@@IEAAXXZ
?dirtyMatrixTypeCache@SkMatrix@@QEAAXXZ
?discard@SkCanvas@@QEAAXXZ
?discardAllPendingWork@SkExecutor@@UEAAHXZ
?distanceToOrigin@SkPoint@@QEBAMXZ
?distanceToSegment@SkContourMeasure@@AEBAPEBUSegment@1@MPEAM@Z
?doComputeFastBounds@SkPaint@@QEBAAEBUSkRect@@AEBU2@PEAU2@W4Style@1@@Z
?doNormalizePerspective@SkMatrix@@AEAAXXZ
?doSave@SkCanvas@@AEAAXXZ
?done@Cliperator@SkRegion@@QEAA_NXZ
?done@Iterator@SkRegion@@QEBA_NXZ
?done@ProgramIterator@GrDeferredDisplayList@@QEBA_NXZ
?done@SkTextBlobRunIterator@@QEBA_NXZ
?dot@SkPoint3@@QEBAMAEBU1@@Z
?dot@SkPoint@@QEBAMAEBU1@@Z
?dot@SkV2@@QEBAMU1@@Z
?dot@SkV3@@QEBAMAEBU1@@Z
?dot@SkV4@@QEBAMAEBU1@@Z
?dotWithNormal@Sk3DView@@QEBAMMMM@Z
?draw@SkDrawable@@QEAAXPEAVSkCanvas@@MM@Z
?draw@SkDrawable@@QEAAXPEAVSkCanvas@@PEBVSkMatrix@@@Z
?draw@SkSurface@@QEAAXPEAVSkCanvas@@MMAEBUSkSamplingOptions@@PEBVSkPaint@@@Z
?draw@SkSurface@@QEAAXPEAVSkCanvas@@MMPEBVSkPaint@@@Z
?draw@Slug@gpu@sktext@@QEBAXPEAVSkCanvas@@AEBVSkPaint@@@Z
?drawAnnotation@SkCanvas@@QEAAXAEBUSkRect@@QEBDAEBV?$sk_sp@VSkData@@@@@Z
?drawAnnotation@SkCanvas@@QEAAXAEBUSkRect@@QEBDPEAVSkData@@@Z
?drawArc@SkCanvas@@QEAAXAEBUSkArc@@AEBVSkPaint@@@Z
?drawArc@SkCanvas@@QEAAXAEBUSkRect@@MM_NAEBVSkPaint@@@Z
?drawAtlas@SkCanvas@@QEAAXPEBVSkImage@@V?$SkSpan@$$CBUSkRSXform@@@@V?$SkSpan@$$CBUSkRect@@@@V?$SkSpan@$$CBI@@W4SkBlendMode@@AEBUSkSamplingOptions@@PEBUSkRect@@PEBVSkPaint@@@Z
?drawCircle@SkCanvas@@QEAAXMMMAEBVSkPaint@@@Z
?drawCircle@SkCanvas@@QEAAXUSkPoint@@MAEBVSkPaint@@@Z
?drawClippedToSaveBehind@SkCanvas@@AEAAXAEBVSkPaint@@@Z
?drawColor@SkCanvas@@QEAAXAEBU?$SkRGBA4f@$02@@W4SkBlendMode@@@Z
?drawColor@SkCanvas@@QEAAXIW4SkBlendMode@@@Z
?drawDRRect@SkCanvas@@QEAAXAEBVSkRRect@@0AEBVSkPaint@@@Z
?drawDrawable@SkCanvas@@QEAAXPEAVSkDrawable@@MM@Z
?drawDrawable@SkCanvas@@QEAAXPEAVSkDrawable@@PEBVSkMatrix@@@Z
?drawGlyphs@SkCanvas@@QEAAXV?$SkSpan@$$CBG@@V?$SkSpan@$$CBUSkPoint@@@@USkPoint@@AEBVSkFont@@AEBVSkPaint@@@Z
?drawGlyphs@SkCanvas@@QEAAXV?$SkSpan@$$CBG@@V?$SkSpan@$$CBUSkPoint@@@@V?$SkSpan@$$CBI@@V?$SkSpan@$$CBD@@USkPoint@@AEBVSkFont@@AEBVSkPaint@@@Z
?drawGlyphsRSXform@SkCanvas@@QEAAXV?$SkSpan@$$CBG@@V?$SkSpan@$$CBUSkRSXform@@@@USkPoint@@AEBVSkFont@@AEBVSkPaint@@@Z
?drawIRect@SkCanvas@@QEAAXAEBUSkIRect@@AEBVSkPaint@@@Z
?drawImage@SkCanvas@@QEAAXAEBV?$sk_sp@VSkImage@@@@MM@Z
?drawImage@SkCanvas@@QEAAXAEBV?$sk_sp@VSkImage@@@@MMAEBUSkSamplingOptions@@PEBVSkPaint@@@Z
?drawImage@SkCanvas@@QEAAXPEBVSkImage@@MM@Z
?drawImage@SkCanvas@@QEAAXPEBVSkImage@@MMAEBUSkSamplingOptions@@PEBVSkPaint@@@Z
?drawImageLattice@SkCanvas@@QEAAXPEBVSkImage@@AEBULattice@1@AEBUSkRect@@@Z
?drawImageLattice@SkCanvas@@QEAAXPEBVSkImage@@AEBULattice@1@AEBUSkRect@@W4SkFilterMode@@PEBVSkPaint@@@Z
?drawImageNine@SkCanvas@@QEAAXPEBVSkImage@@AEBUSkIRect@@AEBUSkRect@@W4SkFilterMode@@PEBVSkPaint@@@Z
?drawImageRect@SkCanvas@@QEAAXAEBV?$sk_sp@VSkImage@@@@AEBUSkRect@@1AEBUSkSamplingOptions@@PEBVSkPaint@@W4SrcRectConstraint@1@@Z
?drawImageRect@SkCanvas@@QEAAXAEBV?$sk_sp@VSkImage@@@@AEBUSkRect@@AEBUSkSamplingOptions@@PEBVSkPaint@@@Z
?drawImageRect@SkCanvas@@QEAAXPEBVSkImage@@AEBUSkRect@@1AEBUSkSamplingOptions@@PEBVSkPaint@@W4SrcRectConstraint@1@@Z
?drawImageRect@SkCanvas@@QEAAXPEBVSkImage@@AEBUSkRect@@AEBUSkSamplingOptions@@PEBVSkPaint@@@Z
?drawLine@SkCanvas@@QEAAXMMMMAEBVSkPaint@@@Z
?drawLine@SkCanvas@@QEAAXUSkPoint@@0AEBVSkPaint@@@Z
?drawMesh@SkCanvas@@QEAAXAEBVSkMesh@@V?$sk_sp@VSkBlender@@@@AEBVSkPaint@@@Z
?drawOval@SkCanvas@@QEAAXAEBUSkRect@@AEBVSkPaint@@@Z
?drawPaint@SkCanvas@@QEAAXAEBVSkPaint@@@Z
?drawPatch@SkCanvas@@QEAAXQEBUSkPoint@@QEBI0W4SkBlendMode@@AEBVSkPaint@@@Z
?drawPath@SkCanvas@@QEAAXAEBVSkPath@@AEBVSkPaint@@@Z
?drawPicture@SkCanvas@@QEAAXAEBV?$sk_sp@VSkPicture@@@@@Z
?drawPicture@SkCanvas@@QEAAXAEBV?$sk_sp@VSkPicture@@@@PEBVSkMatrix@@PEBVSkPaint@@@Z
?drawPicture@SkCanvas@@QEAAXPEBVSkPicture@@@Z
?drawPicture@SkCanvas@@QEAAXPEBVSkPicture@@PEBVSkMatrix@@PEBVSkPaint@@@Z
?drawPoint@SkCanvas@@QEAAXMMAEBVSkPaint@@@Z
?drawPoint@SkCanvas@@QEAAXUSkPoint@@AEBVSkPaint@@@Z
?drawPoints@SkCanvas@@QEAAXW4PointMode@1@V?$SkSpan@$$CBUSkPoint@@@@AEBVSkPaint@@@Z
?drawRRect@SkCanvas@@QEAAXAEBVSkRRect@@AEBVSkPaint@@@Z
?drawRect@SkCanvas@@QEAAXAEBUSkRect@@AEBVSkPaint@@@Z
?drawRegion@SkCanvas@@QEAAXAEBVSkRegion@@AEBVSkPaint@@@Z
?drawRoundRect@SkCanvas@@QEAAXAEBUSkRect@@MMAEBVSkPaint@@@Z
?drawSimpleText@SkCanvas@@QEAAXPEBX_KW4SkTextEncoding@@MMAEBVSkFont@@AEBVSkPaint@@@Z
?drawSlug@SkCanvas@@AEAAXPEBVSlug@gpu@sktext@@AEBVSkPaint@@@Z
?drawString@SkCanvas@@QEAAXAEBVSkString@@MMAEBVSkFont@@AEBVSkPaint@@@Z
?drawString@SkCanvas@@QEAAXQEBDMMAEBVSkFont@@AEBVSkPaint@@@Z
?drawTextBlob@SkCanvas@@QEAAXAEBV?$sk_sp@VSkTextBlob@@@@MMAEBVSkPaint@@@Z
?drawTextBlob@SkCanvas@@QEAAXPEBVSkTextBlob@@MMAEBVSkPaint@@@Z
?drawVertices@SkCanvas@@QEAAXAEBV?$sk_sp@VSkVertices@@@@W4SkBlendMode@@AEBVSkPaint@@@Z
?drawVertices@SkCanvas@@QEAAXPEBVSkVertices@@W4SkBlendMode@@AEBVSkPaint@@@Z
?drawsNothing@SkBitmap@@QEBA_NXZ
?dstInfo@SkCodec@@IEBAAEBUSkImageInfo@@XZ
?dump@SkFont@@QEBAXXZ
?dump@SkM44@@QEBAXXZ
?dump@SkMatrix@@QEBAXXZ
?dump@SkPath@@QEBAXPEAVSkWStream@@_N@Z
?dump@SkPath@@QEBAXXZ
?dump@SkPathBuilder@@QEBAXW4DumpFormat@1@@Z
?dump@SkPathBuilder@@QEBAXXZ
?dump@SkRRect@@QEBAXXZ
?dump@SkRRect@@QEBAX_N@Z
?dump@SkRect@@QEBAXXZ
?dump@SkRect@@QEBAX_N@Z
?dumpBudgetedState@SkTraceMemoryDump@@UEAAXPEBD_N@Z
?dumpHex@SkPath@@QEBAXXZ
?dumpHex@SkRRect@@QEBAXXZ
?dumpHex@SkRect@@QEBAXXZ
?dumpMemoryStatistics@GrDirectContext@@QEBAXPEAVSkTraceMemoryDump@@@Z
?dumpStringValue@SkTraceMemoryDump@@UEAAXPEBD00@Z
?dumpToString@SkPathBuilder@@QEBA?AVSkString@@W4DumpFormat@1@@Z
?dumpToString@SkRRect@@QEBA?AVSkString@@_N@Z
?dumpToString@SkRect@@QEBA?AVSkString@@_N@Z
?dumpWrappedState@SkTraceMemoryDump@@UEAAXPEBD_N@Z
?duplicate@SkFILEStream@@QEBA?AV?$unique_ptr@VSkStreamAsset@@U?$default_delete@VSkStreamAsset@@@std@@@std@@XZ
?duplicate@SkMemoryStream@@QEBA?AV?$unique_ptr@VSkMemoryStream@@U?$default_delete@VSkMemoryStream@@@std@@@std@@XZ
?duplicate@SkStream@@QEBA?AV?$unique_ptr@VSkStream@@U?$default_delete@VSkStream@@@std@@@std@@XZ
?duplicate@SkStreamAsset@@QEBA?AV?$unique_ptr@VSkStreamAsset@@U?$default_delete@VSkStreamAsset@@@std@@@std@@XZ
?duplicate@SkStreamMemory@@QEBA?AV?$unique_ptr@VSkStreamMemory@@U?$default_delete@VSkStreamMemory@@@std@@@std@@XZ
?duplicate@SkStreamRewindable@@QEBA?AV?$unique_ptr@VSkStreamRewindable@@U?$default_delete@VSkStreamRewindable@@@std@@@std@@XZ
?duplicate@SkStreamSeekable@@QEBA?AV?$unique_ptr@VSkStreamSeekable@@U?$default_delete@VSkStreamSeekable@@@std@@@std@@XZ
?effect@SkRuntimeEffectBuilder@@QEBAPEBVSkRuntimeEffect@@XZ
?elemSize@SkDeque@@QEBA_KXZ
?empty@SkBitmap@@QEBA_NXZ
?empty@SkData@@QEBA_NXZ
?empty@SkDeque@@QEBA_NXZ
?empty@SkTDStorage@@QEBA_NXZ
?emptyRunHeadPtr@SkRegion@@CAPEAURunHead@1@XZ
?enableDataType@SupportedDataTypes@SkYUVAPixmapInfo@@QEAAXW4DataType@2@H@Z
?encodeRows@SkEncoder@@QEAA_NH@Z
?end@SkContourMeasure@@QEBA?AVForwardVerbIterator@1@XZ
?end@SkString@@QEAAPEADXZ
?end@SkString@@QEBAPEBDXZ
?endPage@SkDocument@@QEAAXXZ
?endsWith@SkString@@QEBA_ND@Z
?endsWith@SkString@@QEBA_NQEBD@Z
?ensureMove@SkPathBuilder@@AEAAXXZ
?ensureStorage@SkCustomTypefaceBuilder@@AEAAAEAUGlyphRec@1@G@Z
?equals@SkData@@QEBA_NPEBV1@@Z
?equals@SkPoint@@QEBA_NMM@Z
?equals@SkString@@QEBA_NAEBV1@@Z
?equals@SkString@@QEBA_NQEBD@Z
?equals@SkString@@QEBA_NQEBD_K@Z
?erase@SkBitmap@@QEBAXIAEBUSkIRect@@@Z
?erase@SkBitmap@@QEBAXU?$SkRGBA4f@$02@@AEBUSkIRect@@@Z
?erase@SkPixmap@@QEBA_NAEBU?$SkRGBA4f@$02@@PEBUSkIRect@@@Z
?erase@SkPixmap@@QEBA_NI@Z
?erase@SkPixmap@@QEBA_NIAEBUSkIRect@@@Z
?erase@SkTDStorage@@QEAAXHH@Z
?eraseARGB@SkBitmap@@QEBAXIIII@Z
?eraseArea@SkBitmap@@QEBAXAEBUSkIRect@@I@Z
?eraseColor@SkBitmap@@QEBAXI@Z
?eraseColor@SkBitmap@@QEBAXU?$SkRGBA4f@$02@@@Z
?errorCount@Compiler@SkSL@@QEBAHXZ
?errorReporter@Compiler@SkSL@@QEAAAEAVErrorReporter@2@XZ
?errorText@Compiler@SkSL@@QEAA?AV?$basic_string@DU?$char_traits@D@std@@V?$allocator@D@2@@std@@_N@Z
?experimentalNext@Iter@SkTextBlob@@QEAA_NPEAUExperimentalRun@12@@Z
?experimental_DrawEdgeAAImageSet@SkCanvas@@QEAAXQEBUImageSetEntry@1@HQEBUSkPoint@@QEBVSkMatrix@@AEBUSkSamplingOptions@@PEBVSkPaint@@W4SrcRectConstraint@1@@Z
?experimental_DrawEdgeAAQuad@SkCanvas@@QEAAXAEBUSkRect@@QEBUSkPoint@@W4QuadAAFlags@1@AEBU?$SkRGBA4f@$02@@W4SkBlendMode@@@Z
?experimental_DrawEdgeAAQuad@SkCanvas@@QEAAXAEBUSkRect@@QEBUSkPoint@@W4QuadAAFlags@1@IW4SkBlendMode@@@Z
?extractAlpha@SkBitmap@@QEBA_NPEAV1@@Z
?extractAlpha@SkBitmap@@QEBA_NPEAV1@PEBVSkPaint@@PEAUSkIPoint@@@Z
?extractAlpha@SkBitmap@@QEBA_NPEAV1@PEBVSkPaint@@PEAVAllocator@1@PEAUSkIPoint@@@Z
?extractSubset@SkBitmap@@QEBA_NPEAV1@AEBUSkIRect@@@Z
?extractSubset@SkPixmap@@QEBA_NPEAV1@AEBUSkIRect@@@Z
?fillIncompleteImage@SkCodec@@AEAAXAEBUSkImageInfo@@PEAX_KW4ZeroInitialized@1@HH@Z
?fillType@SkPathBuilder@@QEBA?AW4SkPathFillType@@XZ
?filterBounds@SkImageFilter@@QEBA?AUSkIRect@@AEBU2@AEBVSkMatrix@@W4MapDirection@1@PEBU2@@Z
?filterColor4f@SkColorFilter@@QEBA?AU?$SkRGBA4f@$02@@AEBU2@PEAVSkColorSpace@@1@Z
?filterPath@SkPathEffect@@QEBA_NPEAVSkPath@@AEBV2@PEAVSkStrokeRec@@PEBUSkRect@@@Z
?filterPath@SkPathEffect@@QEBA_NPEAVSkPath@@AEBV2@PEAVSkStrokeRec@@PEBUSkRect@@AEBVSkMatrix@@@Z
?filterPath@SkPathEffect@@QEBA_NPEAVSkPathBuilder@@AEBVSkPath@@PEAVSkStrokeRec@@@Z
?filterPath@SkPathEffect@@QEBA_NPEAVSkPathBuilder@@AEBVSkPath@@PEAVSkStrokeRec@@PEBUSkRect@@AEBVSkMatrix@@@Z
?filterRec@SkTypeface@@QEBAXPEAUSkScalerContextRec@@@Z
?finalize@Compiler@SkSL@@AEAA_NAEAUProgram@2@@Z
?find@SkString@@QEBAHQEBD@Z
?findAttribute@SkMeshSpecification@@QEBAPEBUAttribute@1@V?$basic_string_view@DU?$char_traits@D@std@@@std@@@Z
?findChild@SkMeshSpecification@@QEBAPEBUChild@SkRuntimeEffect@@V?$basic_string_view@DU?$char_traits@D@std@@@std@@@Z
?findChild@SkRuntimeEffect@@QEBAPEBUChild@1@V?$basic_string_view@DU?$char_traits@D@std@@@std@@@Z
?findLastOf@SkString@@QEBAHD@Z
?findUniform@SkMeshSpecification@@QEBAPEBUUniform@SkRuntimeEffect@@V?$basic_string_view@DU?$char_traits@D@std@@@std@@@Z
?findUniform@SkRuntimeEffect@@QEBAPEBUUniform@1@V?$basic_string_view@DU?$char_traits@D@std@@@std@@@Z
?findVarying@SkMeshSpecification@@QEBAPEBUVarying@1@V?$basic_string_view@DU?$char_traits@D@std@@@std@@@Z
?finish@SkAnimatedImage@@AEAANXZ
?finishRecordingAsDrawable@SkPictureRecorder@@QEAA?AV?$sk_sp@VSkDrawable@@@@XZ
?finishRecordingAsPicture@SkPictureRecorder@@QEAA?AV?$sk_sp@VSkPicture@@@@XZ
?finishRecordingAsPictureWithCull@SkPictureRecorder@@QEAA?AV?$sk_sp@VSkPicture@@@@AEBUSkRect@@@Z
?flags@SkSurfaceProps@@QEBAIXZ
?flatten@SkColorTable@@QEBAXAEAVSkWriteBuffer@@@Z
?flatten@SkFlattenable@@UEBAXAEAVSkWriteBuffer@@@Z
?flattenable@ChildPtr@SkRuntimeEffect@@QEBAPEAVSkFlattenable@@XZ
?flush@GrDirectContext@@QEAA?AW4GrSemaphoresSubmitted@@AEBUGrFlushInfo@@@Z
?flush@GrDirectContext@@QEAA?AW4GrSemaphoresSubmitted@@AEBV?$sk_sp@$$CBVSkImage@@@@AEBUGrFlushInfo@@@Z
?flush@GrDirectContext@@QEAA?AW4GrSemaphoresSubmitted@@PEAVSkSurface@@AEBUGrFlushInfo@@PEBVMutableTextureState@skgpu@@@Z
?flush@GrDirectContext@@QEAA?AW4GrSemaphoresSubmitted@@PEAVSkSurface@@W4BackendSurfaceAccess@SkSurfaces@@AEBUGrFlushInfo@@@Z
?flush@GrDirectContext@@QEAAXAEBV?$sk_sp@$$CBVSkImage@@@@@Z
?flush@GrDirectContext@@QEAAXPEAVSkSurface@@@Z
?flush@GrDirectContext@@QEAAXXZ
?flush@SkFILEWStream@@UEAAXXZ
?flush@SkNullWStream@@UEAAXXZ
?flush@SkWStream@@UEAAXXZ
?flushAndSubmit@GrDirectContext@@QEAAXAEBV?$sk_sp@$$CBVSkImage@@@@@Z
?flushAndSubmit@GrDirectContext@@QEAAXPEAVSkSurface@@W4GrSyncCpu@@@Z
?flushAndSubmit@GrDirectContext@@QEAAXW4GrSyncCpu@@@Z
?font@SkTextBlobRunIterator@@QEBAAEBVSkFont@@XZ
?fontStyle@SkTypeface@@QEBA?AVSkFontStyle@@XZ
?fork@SkFILEStream@@QEBA?AV?$unique_ptr@VSkStreamAsset@@U?$default_delete@VSkStreamAsset@@@std@@@std@@XZ
?fork@SkMemoryStream@@QEBA?AV?$unique_ptr@VSkMemoryStream@@U?$default_delete@VSkMemoryStream@@@std@@@std@@XZ
?fork@SkStream@@QEBA?AV?$unique_ptr@VSkStream@@U?$default_delete@VSkStream@@@std@@@std@@XZ
?fork@SkStreamAsset@@QEBA?AV?$unique_ptr@VSkStreamAsset@@U?$default_delete@VSkStreamAsset@@@std@@@std@@XZ
?fork@SkStreamMemory@@QEBA?AV?$unique_ptr@VSkStreamMemory@@U?$default_delete@VSkStreamMemory@@@std@@@std@@XZ
?fork@SkStreamSeekable@@QEBA?AV?$unique_ptr@VSkStreamSeekable@@U?$default_delete@VSkStreamSeekable@@@std@@@std@@XZ
?freeBlock@SkDeque@@AEAAXPEAUBlock@1@@Z
?freeGpuResources@GrDirectContext@@QEAAXXZ
?freeRuns@SkRegion@@AEAAXXZ
?front@SkDeque@@QEAAPEAXXZ
?front@SkDeque@@QEBAPEBXXZ
?fsync@SkFILEWStream@@QEAAXXZ
?gEmptyRec@SkString@@0URec@1@B
?gMapPtsProcs@SkMatrix@@0QBQ6AXAEBV1@QEAUSkPoint@@QEBU2@H@ZB
?gTable@SkUnPreMultiply@@0QBIB
?gammaCloseToSRGB@SkColorInfo@@QEBA_NXZ
?gammaCloseToSRGB@SkColorSpace@@QEBA_NXZ
?gammaCloseToSRGB@SkImageInfo@@QEBA_NXZ
?gammaIsLinear@SkColorSpace@@QEBA_NXZ
?gamutTransformTo@SkColorSpace@@QEBAXPEBV1@PEAUskcms_Matrix3x3@@@Z
?genID@SkPathRef@@QEBAIW4SkPathFillType@@@Z
?genIDChangeListenerCount@SkPathRef@@QEAAHXZ
?genIDIsUnique@SkPixelRef@@AEBA_NXZ
?generateTexture@GrTextureGenerator@@QEAA?AVGrSurfaceProxyView@@PEAVGrRecordingContext@@AEBUSkImageInfo@@W4Mipmapped@skgpu@@W4GrImageTexGenPolicy@@@Z
?generationID@SkSurface@@QEAAIXZ
?get9@SkMatrix@@QEBAXQEAM@Z
?get@SkMatrix@@QEBAMH@Z
?getAddr16@SkBitmap@@QEBAPEAGHH@Z
?getAddr32@SkBitmap@@QEBAPEAIHH@Z
?getAddr8@SkBitmap@@QEBAPEAEHH@Z
?getAddr@SkBitmap@@QEBAPEAXHH@Z
?getAdvancedMetrics@SkTypeface@@AEBA?AV?$unique_ptr@USkAdvancedTypefaceMetrics@@U?$default_delete@USkAdvancedTypefaceMetrics@@@std@@@std@@XZ
?getAlpha@SkPaint@@QEBAEXZ
?getAlphaf@SkBitmap@@QEBAMHH@Z
?getAlphaf@SkPaint@@QEBAMXZ
?getAlphaf@SkPixmap@@QEBAMHH@Z
?getAndroidGainmap@SkAndroidCodec@@QEAA_NPEAUSkGainmapInfo@@PEAV?$unique_ptr@VSkStream@@U?$default_delete@VSkStream@@@std@@@std@@@Z
?getAndroidPixels@SkAndroidCodec@@QEAA?AW4Result@SkCodec@@AEBUSkImageInfo@@PEAX_K@Z
?getAndroidPixels@SkAndroidCodec@@QEAA?AW4Result@SkCodec@@AEBUSkImageInfo@@PEAX_KPEBUAndroidOptions@1@@Z
?getAtPos@SkMemoryStream@@QEAAPEBXXZ
?getBackendFormat@GrBackendRenderTarget@@QEBA?AVGrBackendFormat@@XZ
?getBackendFormat@GrBackendTexture@@QEBA?AVGrBackendFormat@@XZ
?getBaseLayerSize@SkCanvas@@UEBA?AUSkISize@@XZ
?getBaseLayerSize@SkPaintFilterCanvas@@UEBA?AUSkISize@@XZ
?getBaseProps@SkCanvas@@QEBA?AVSkSurfaceProps@@XZ
?getBlendMode_or@SkPaint@@QEBA?AW4SkBlendMode@@W42@@Z
?getBlender@SkPaint@@QEBAPEAVSkBlender@@XZ
?getBoundaryPath@SkRegion@@QEBA?AVSkPath@@XZ
?getBounds@SkBitmap@@QEBAXPEAUSkIRect@@@Z
?getBounds@SkBitmap@@QEBAXPEAUSkRect@@@Z
?getBounds@SkDrawable@@QEAA?AUSkRect@@XZ
?getBounds@SkFont@@QEBA?AUSkRect@@GPEBVSkPaint@@@Z
?getBounds@SkFont@@QEBAXV?$SkSpan@$$CBG@@V?$SkSpan@USkRect@@@@PEBVSkPaint@@@Z
?getBounds@SkPath@@QEBAAEBUSkRect@@XZ
?getBounds@SkPathRef@@QEBAAEBUSkRect@@XZ
?getBounds@SkRRect@@QEBAAEBUSkRect@@XZ
?getBounds@SkRegion@@QEBAAEBUSkIRect@@XZ
?getBounds@SkTypeface@@QEBA?AUSkRect@@XZ
?getCanvas@GrDeferredDisplayListRecorder@@QEAAPEAVSkCanvas@@XZ
?getCanvas@SkSurface@@QEAAPEAVSkCanvas@@XZ
?getCap@SkStrokeRec@@QEBA?AW4Cap@SkPaint@@XZ
?getColMajor@SkM44@@QEBAXQEAM@Z
?getColor4f@SkBitmap@@QEBA?AU?$SkRGBA4f@$02@@HH@Z
?getColor4f@SkPaint@@QEBA?AU?$SkRGBA4f@$02@@XZ
?getColor4f@SkPixmap@@QEBA?AU?$SkRGBA4f@$02@@HH@Z
?getColor@SkBitmap@@QEBAIHH@Z
?getColor@SkPaint@@QEBAIXZ
?getColor@SkPixmap@@QEBAIHH@Z
?getColorFilter@SkPaint@@QEBAPEAVSkColorFilter@@XZ
?getContentLightLevelInformation@Metadata@skhdr@@QEBA_NPEAUContentLightLevelInformation@2@@Z
?getConvexity@SkPath@@AEBA?AW4SkPathConvexity@@XZ
?getConvexityOrUnknown@SkPath@@AEBA?AW4SkPathConvexity@@XZ
?getCurrentFrame@SkAnimatedImage@@QEAA?AV?$sk_sp@VSkImage@@@@XZ
?getCurrentFrameSimple@SkAnimatedImage@@AEAA?AV?$sk_sp@VSkImage@@@@XZ
?getData@SkMemoryStream@@UEBA?AV?$sk_sp@$$CBVSkData@@@@XZ
?getData@SkStream@@UEBA?AV?$sk_sp@$$CBVSkData@@@@XZ
?getDeviceClipBounds@SkCanvas@@QEBA?AUSkIRect@@XZ
?getDeviceClipBounds@SkCanvas@@QEBA_NPEAUSkIRect@@@Z
?getEdging@SkFont@@QEBA?AW4Edging@1@XZ
?getEncodedData@SkCodec@@UEBA?AV?$unique_ptr@VSkStream@@U?$default_delete@VSkStream@@@std@@@std@@XZ
?getEncodedFormat@SkAndroidCodec@@QEBA?AW4SkEncodedImageFormat@@XZ
?getEncodedFormat@SkCodec@@QEBA?AW4SkEncodedImageFormat@@XZ
?getEncodedInfo@SkCodec@@IEBAAEBUSkEncodedInfo@@XZ
?getFactory@SkDrawable@@UEBAP6A?AV?$sk_sp@VSkFlattenable@@@@AEAVSkReadBuffer@@@ZXZ
?getFamilyName@SkFontMgr@@QEBAXHPEAVSkString@@@Z
?getFamilyName@SkTypeface@@QEBAXPEAVSkString@@@Z
?getFillType@SkPath@@QEBA?AW4SkPathFillType@@XZ
?getFilterMode@SkAnimatedImage@@QEBA?AW4SkFilterMode@@XZ
?getFlattenableType@SkDrawable@@UEBA?AW4Type@SkFlattenable@@XZ
?getFontDescriptor@SkTypeface@@QEBAXPEAVSkFontDescriptor@@PEA_N@Z
?getFrameCount@SkAnimatedImage@@QEBAHXZ
?getFrameCount@SkCodec@@QEAAHXZ
?getFrameHolder@SkCodec@@EEBAPEBVSkFrameHolder@@XZ
?getFrameInfo@SkCodec@@QEAA?AV?$vector@UFrameInfo@SkCodec@@V?$allocator@UFrameInfo@SkCodec@@@std@@@std@@XZ
?getFrameInfo@SkCodec@@QEBA_NHPEAUFrameInfo@1@@Z
?getGainmapAndroidCodec@SkAndroidCodec@@QEAA_NPEAUSkGainmapInfo@@PEAV?$unique_ptr@VSkAndroidCodec@@U?$default_delete@VSkAndroidCodec@@@std@@@std@@@Z
?getGainmapInfoHDRGM@SkXmp@@QEBA_NPEAUSkGainmapInfo@@@Z
?getGenerationID@SkBitmap@@QEBAIXZ
?getGenerationID@SkDrawable@@QEAAIXZ
?getGenerationID@SkPath@@QEBAIXZ
?getGenerationID@SkPixelRef@@QEBAIXZ
?getGlyphToUnicodeMap@SkTypeface@@MEBAXV?$SkSpan@H@@@Z
?getHdrMetadata@SkCodec@@QEBAAEBVMetadata@skhdr@@XZ
?getHinting@SkFont@@QEBA?AW4SkFontHinting@@XZ
?getICCProfile@SkAndroidCodec@@QEBAPEBUskcms_ICCProfile@@XZ
?getICCProfile@SkCodec@@QEBAPEBUskcms_ICCProfile@@XZ
?getImage@SkCodec@@QEAA?AV?$tuple@V?$sk_sp@VSkImage@@@@W4Result@SkCodec@@@std@@AEBUSkImageInfo@@PEBUOptions@1@@Z
?getImage@SkCodec@@QEAA?AV?$tuple@V?$sk_sp@VSkImage@@@@W4Result@SkCodec@@@std@@XZ
?getImageFilter@SkPaint@@QEBAPEAVSkImageFilter@@XZ
?getInflationRadius@SkStrokeRec@@QEBAMXZ
?getInfo@SkAndroidCodec@@QEBAAEBUSkImageInfo@@XZ
?getInfo@SkCodec@@QEBA?AUSkImageInfo@@XZ
?getInfo@SkImageGenerator@@QEBAAEBUSkImageInfo@@XZ
?getInput@SkImageFilter@@QEBAPEBV1@H@Z
?getIntercepts@SkFont@@QEBA?AV?$vector@MV?$allocator@M@std@@@std@@V?$SkSpan@$$CBG@@V?$SkSpan@$$CBUSkPoint@@@@MMPEBVSkPaint@@@Z
?getIntercepts@SkTextBlob@@QEBAHQEBMQEAMPEBVSkPaint@@@Z
?getJoin@SkStrokeRec@@QEBA?AW4Join@SkPaint@@XZ
?getKerningPairAdjustments@SkTypeface@@QEBA_NV?$SkSpan@$$CBG@@V?$SkSpan@H@@@Z
?getLabel@GrBackendTexture@@QEBA?AV?$basic_string_view@DU?$char_traits@D@std@@@std@@XZ
?getLastPt@SkPath@@QEBA?AV?$optional@USkPoint@@@std@@XZ
?getLastPt@SkPath@@QEBA_NPEAUSkPoint@@@Z
?getLastPt@SkPathBuilder@@QEBA?AV?$optional@USkPoint@@@std@@XZ
?getLength@SkFILEStream@@UEBA_KXZ
?getLength@SkMemoryStream@@UEBA_KXZ
?getLength@SkPathMeasure@@QEAAMXZ
?getLength@SkStream@@UEBA_KXZ
?getLocalClipBounds@SkCanvas@@QEBA?AUSkRect@@XZ
?getLocalClipBounds@SkCanvas@@QEBA_NPEAUSkRect@@@Z
?getLocalToDevice@SkCanvas@@QEBA?AVSkM44@@XZ
?getLocalToDeviceAs3x3@SkCanvas@@QEBA?AVSkMatrix@@XZ
?getMapPtsProc@SkMatrix@@AEBAP6AXAEBV1@QEAUSkPoint@@QEBU2@H@ZXZ
?getMaskFilter@SkPaint@@QEBAPEAVSkMaskFilter@@XZ
?getMasteringDisplayColorVolume@Metadata@skhdr@@QEBA_NPEAUMasteringDisplayColorVolume@2@@Z
?getMatrix@Sk3DView@@QEBAXPEAVSkMatrix@@@Z
?getMatrix@SkContourMeasure@@QEBA_NMPEAVSkMatrix@@W4MatrixFlags@1@@Z
?getMatrix@SkPathMeasure@@QEAA_NMPEAVSkMatrix@@W4MatrixFlags@1@@Z
?getMaxScale@SkMatrix@@QEBAMXZ
?getMemoryBase@SkMemoryStream@@UEAAPEBXXZ
?getMemoryBase@SkStream@@UEAAPEBXXZ
?getMetrics@SkFont@@QEBAMPEAUSkFontMetrics@@@Z
?getMinMaxScales@SkMatrix@@QEBA_NQEAM@Z
?getMinScale@SkMatrix@@QEBAMXZ
?getMiter@SkStrokeRec@@QEBAMXZ
?getMockRenderTargetInfo@GrBackendRenderTarget@@QEBA_NPEAUGrMockRenderTargetInfo@@@Z
?getMockTextureInfo@GrBackendTexture@@QEBA_NPEAUGrMockTextureInfo@@@Z
?getMutableState@GrBackendRenderTarget@@AEBA?AV?$sk_sp@VMutableTextureState@skgpu@@@@XZ
?getMutableState@GrBackendTexture@@AEBA?AV?$sk_sp@VMutableTextureState@skgpu@@@@XZ
?getOrigin@SkCodec@@QEBA?AW4SkEncodedOrigin@@XZ
?getOvalInfo@SkPath@@AEBA?AV?$optional@USkPathOvalInfo@@@std@@XZ
?getPath@SkFont@@QEBA?AV?$optional@VSkPath@@@std@@G@Z
?getPathEffect@SkPaint@@QEBAPEAVSkPathEffect@@XZ
?getPaths@SkFont@@QEBAXV?$SkSpan@$$CBG@@P6AXPEBVSkPath@@AEBVSkMatrix@@PEAX@Z3@Z
?getPerspX@SkMatrix@@QEBAMXZ
?getPerspY@SkMatrix@@QEBAMXZ
?getPerspectiveTypeMaskOnly@SkMatrix@@AEBA?AW4TypeMask@1@XZ
?getPixels@SkAndroidCodec@@QEAA?AW4Result@SkCodec@@AEBUSkImageInfo@@PEAX_K@Z
?getPixels@SkBitmap@@QEBAPEAXXZ
?getPixels@SkCodec@@QEAA?AW4Result@1@AEBUSkImageInfo@@PEAX_K@Z
?getPixels@SkCodec@@QEAA?AW4Result@1@AEBUSkImageInfo@@PEAX_KPEBUOptions@1@@Z
?getPixels@SkCodec@@QEAA?AW4Result@1@AEBVSkPixmap@@PEBUOptions@1@@Z
?getPixels@SkImageGenerator@@QEAA_NAEBUSkImageInfo@@PEAX_K@Z
?getPixels@SkImageGenerator@@QEAA_NAEBVSkPixmap@@@Z
?getPoint@SkPath@@QEBA?AUSkPoint@@H@Z
?getPoints@SkPath@@QEBA_KV?$SkSpan@USkPoint@@@@@Z
?getPoints@SkPathRef@@AEBAPEBUSkPoint@@XZ
?getPos@SkFont@@QEBAXV?$SkSpan@$$CBG@@V?$SkSpan@USkPoint@@@@USkPoint@@@Z
?getPosTan@SkContourMeasure@@QEBA_NMPEAUSkPoint@@0@Z
?getPosTan@SkPathMeasure@@QEAA_NMPEAUSkPoint@@0@Z
?getPosition@SkFILEStream@@UEBA_KXZ
?getPosition@SkMemoryStream@@UEBA_KXZ
?getPosition@SkStream@@UEBA_KXZ
?getPostScriptName@SkTypeface@@QEBA_NPEAVSkString@@@Z
?getProps@SkCanvas@@QEBA_NPEAVSkSurfaceProps@@@Z
?getRPProgram@SkRuntimeEffect@@AEBAPEBVProgram@RP@SkSL@@PEAVDebugTracePriv@4@@Z
?getRRectInfo@SkPath@@AEBA?AV?$optional@USkPathRRectInfo@@@std@@XZ
?getRecordingCanvas@SkPictureRecorder@@QEAAPEAVSkCanvas@@XZ
?getRepetitionCount@SkAnimatedImage@@QEBAHXZ
?getRepetitionCount@SkCodec@@QEAAHXZ
?getResScale@SkStrokeRec@@QEBAMXZ
?getResourceCacheLimit@GrDirectContext@@QEBA_KXZ
?getResourceCacheLimits@GrDirectContext@@QEBAXPEAHPEA_K@Z
?getResourceCachePurgeableBytes@GrDirectContext@@QEBA_KXZ
?getResourceCacheUsage@GrDirectContext@@QEBAXPEAHPEA_K@Z
?getResourceName@SkTypeface@@QEBAHPEAVSkString@@@Z
?getRowMajor@SkColorMatrix@@QEBAXQEAM@Z
?getRowMajor@SkM44@@QEBAXQEAM@Z
?getRuns@SkRegion@@AEBAPEBHQEAHPEAH@Z
?getSampledDimensions@SkAndroidCodec@@QEBA?AUSkISize@@H@Z
?getSampledSubsetDimensions@SkAndroidCodec@@QEBA?AUSkISize@@HAEBUSkIRect@@@Z
?getSampler@SkCodec@@EEAAPEAVSkSampler@@_N@Z
?getSaveCount@SkCanvas@@QEBAHXZ
?getSaveLayerStrategy@SkCanvas@@MEAA?AW4SaveLayerStrategy@1@AEBUSaveLayerRec@1@@Z
?getSaveLayerStrategy@SkNWayCanvas@@MEAA?AW4SaveLayerStrategy@SkCanvas@@AEBUSaveLayerRec@3@@Z
?getSaveLayerStrategy@SkNoDrawCanvas@@MEAA?AW4SaveLayerStrategy@SkCanvas@@AEBUSaveLayerRec@3@@Z
?getScaleX@SkFont@@QEBAMXZ
?getScaleX@SkMatrix@@QEBAMXZ
?getScaleY@SkMatrix@@QEBAMXZ
?getScaledDimensions@SkCodec@@QEBA?AUSkISize@@M@Z
?getScanlineOrder@SkCodec@@QEBA?AW4SkScanlineOrder@1@XZ
?getScanlines@SkCodec@@QEAAHPEAXH_K@Z
?getSegment@SkContourMeasure@@QEBA_NMMPEAVSkPath@@_N@Z
?getSegment@SkContourMeasure@@QEBA_NMMPEAVSkPathBuilder@@_N@Z
?getSegment@SkPathMeasure@@QEAA_NMMPEAVSkPath@@_N@Z
?getSegment@SkPathMeasure@@QEAA_NMMPEAVSkPathBuilder@@_N@Z
?getSegmentMasks@SkPath@@QEBAIXZ
?getSegmentMasks@SkPathRef@@QEBAIXZ
?getSerializedAgtm@Metadata@skhdr@@QEBA?AV?$sk_sp@$$CBVSkData@@@@XZ
?getShader@SkPaint@@QEBAPEAVSkShader@@XZ
?getSimpleRadii@SkRRect@@QEBA?AUSkPoint@@XZ
?getSize@SkFont@@QEBAMXZ
?getSizes@SkVertices@@AEBA?AUSizes@1@XZ
?getSkewX@SkFont@@QEBAMXZ
?getSkewX@SkMatrix@@QEBAMXZ
?getSkewY@SkMatrix@@QEBAMXZ
?getSpacing@SkFont@@QEBAMXZ
?getState@SkDocument@@IEBA?AW4State@1@XZ
?getStream@SkDocument@@IEAAPEAVSkWStream@@XZ
?getStrokeCap@SkPaint@@QEBA?AW4Cap@1@XZ
?getStrokeJoin@SkPaint@@QEBA?AW4Join@1@XZ
?getStrokeMiter@SkPaint@@QEBAMXZ
?getStrokeWidth@SkPaint@@QEBAMXZ
?getStyle@SkPaint@@QEBA?AW4Style@1@XZ
?getStyle@SkStrokeRec@@QEBA?AW4Style@1@XZ
?getSubset@SkBitmap@@QEBA?AUSkIRect@@XZ
?getSupportedSubset@SkAndroidCodec@@QEBA_NPEAUSkIRect@@@Z
?getSurface@SkCanvas@@QEBAPEAVSkSurface@@XZ
?getSurfaceBase@SkCanvas@@AEBAPEAVSkSurface_Base@@XZ
?getTableData@SkTypeface@@QEBA_KI_K0PEAX@Z
?getTableSize@SkTypeface@@QEBA_KI@Z
?getTopProps@SkCanvas@@QEBA?AVSkSurfaceProps@@XZ
?getTotalMatrix@SkCanvas@@QEBA?AVSkMatrix@@XZ
?getTranslateX@SkMatrix@@QEBAMXZ
?getTranslateY@SkMatrix@@QEBAMXZ
?getType@SkMatrix@@QEBA?AW4TypeMask@1@XZ
?getType@SkRRect@@QEBA?AW4Type@1@XZ
?getTypeName@SkDrawable@@UEBAPEBDXZ
?getTypeface@SkFont@@QEBAPEAVSkTypeface@@XZ
?getUnitsPerEm@SkTypeface@@QEBAHXZ
?getValidSubset@SkCodec@@QEBA_NPEAUSkIRect@@@Z
?getVariationDesignParameters@SkTypeface@@QEBAHV?$SkSpan@UAxis@Variation@SkFontParameters@@@@@Z
?getVariationDesignPosition@SkTypeface@@QEBAHV?$SkSpan@UCoordinate@VariationPosition@SkFontArguments@@@@@Z
?getVerbs@SkPath@@QEBA_KV?$SkSpan@E@@@Z
?getWidth@SkFont@@QEBAMG@Z
?getWidth@SkStrokeRec@@QEBAMXZ
?getWidths@SkFont@@QEBAXV?$SkSpan@$$CBG@@V?$SkSpan@M@@@Z
?getWidthsBounds@SkFont@@QEBAXV?$SkSpan@$$CBG@@V?$SkSpan@M@@V?$SkSpan@USkRect@@@@PEBVSkPaint@@@Z
?getWritablePoints@SkPathRef@@AEAAPEAUSkPoint@@XZ
?getXPos@SkFont@@QEBAXV?$SkSpan@$$CBG@@V?$SkSpan@M@@M@Z
?getYUVAPlanes@SkCodec@@QEAA?AW4Result@1@AEBVSkYUVAPixmaps@@@Z
?getYUVAPlanes@SkImageGenerator@@QEAA_NAEBVSkYUVAPixmaps@@@Z
?globalSymbols@Compiler@SkSL@@QEAAPEAVSymbolTable@2@XZ
?glyphCount@SkTextBlobRunIterator@@QEBAIXZ
?glyphMaskNeedsCurrentColor@SkTypeface@@AEBA_NXZ
?glyphs@SkTextBlobRunIterator@@QEBAPEBGXZ
?greenTable@SkColorTable@@QEBAPEBEXZ
?growForRepeatedVerb@SkPathRef@@AEAAPEAUSkPoint@@W4SkPathVerb@@HPEAPEAM@Z
?growForVerb@SkPathRef@@AEAAPEAUSkPoint@@W4SkPathVerb@@M@Z
?growForVerbsInPath@SkPathBuilder@@AEAA?AV?$tuple@PEAUSkPoint@@PEAM@std@@AEBVSkPath@@@Z
?growForVerbsInPath@SkPathRef@@AEAA?AV?$tuple@PEAUSkPoint@@PEAM@std@@AEBV1@@Z
?growthFactorCapacity@SkContainerAllocator@@AEBA_KHN@Z
?handleError@Compiler@SkSL@@QEAAXV?$basic_string_view@DU?$char_traits@D@std@@@std@@VPosition@2@@Z
?handleFrameIndex@SkCodec@@AEAA?AW4Result@1@AEBUSkImageInfo@@PEAX_KAEBUOptions@1@V?$function@$$A6A?AW4Result@SkCodec@@AEBUSkImageInfo@@PEAX_KAEBUOptions@2@H@Z@std@@@Z
?hasAlpha@SkYUVAInfo@@QEBA_NXZ
?hasBounds@SkFontMetrics@@QEBA_NXZ
?hasComputedBounds@SkPath@@AEBA_NXZ
?hasComputedBounds@SkPathRef@@QEBA_NXZ
?hasEqualEffect@SkStrokeRec@@QEBA_NAEBV1@@Z
?hasHighBitDepthEncodedData@SkCodec@@QEBA_NXZ
?hasLength@SkStream@@UEBA_NXZ
?hasLength@SkStreamAsset@@UEBA_NXZ
?hasMipmaps@GrBackendTexture@@QEBA_NXZ
?hasMipmaps@SkImage@@QEBA_NXZ
?hasNewVkPipelineCacheData@GrDirectContext@@QEBA_NXZ
?hasOnlyMoveTos@SkPath@@AEBA_NXZ
?hasPerspective@SkMatrix@@QEBA_NXZ
?hasPosition@SkStream@@UEBA_NXZ
?hasPosition@SkStreamSeekable@@UEBA_NXZ
?hasSomeAntiAliasing@SkFont@@AEBA_NXZ
?hasStrikeoutPosition@SkFontMetrics@@QEBA_NPEAM@Z
?hasStrikeoutThickness@SkFontMetrics@@QEBA_NPEAM@Z
?hasUnderlinePosition@SkFontMetrics@@QEBA_NPEAM@Z
?hasUnderlineThickness@SkFontMetrics@@QEBA_NPEAM@Z
?hash@SkColorSpace@@QEBA_KXZ
?hash@SkRuntimeEffect@@AEBAIXZ
?height64@SkIRect@@QEBA_JXZ
?height@GrBackendRenderTarget@@QEBAHXZ
?height@GrBackendTexture@@QEBAHXZ
?height@GrSurfaceCharacterization@@QEBAHXZ
?height@SkBitmap@@QEBAHXZ
?height@SkIRect@@QEBAHXZ
?height@SkImage@@QEBAHXZ
?height@SkImageInfo@@QEBAHXZ
?height@SkPixelRef@@QEBAHXZ
?height@SkPixmap@@QEBAHXZ
?height@SkRRect@@QEBAMXZ
?height@SkRect@@QEBAMXZ
?height@SkSurface@@QEBAHXZ
?height@SkYUVAInfo@@QEBAHXZ
?imageInfo@GrSurfaceCharacterization@@QEBAAEBUSkImageInfo@@XZ
?imageInfo@SkCanvas@@QEBA?AUSkImageInfo@@XZ
?imageInfo@SkImage@@QEBAAEBUSkImageInfo@@XZ
?imageInfo@SkSurface@@UEBA?AUSkImageInfo@@XZ
?incReserve@SkPathBuilder@@QEAAXH@Z
?incReserve@SkPathBuilder@@QEAAXHHH@Z
?incReserve@SkPathRef@@AEAAXHHH@Z
?incrementalDecode@SkCodec@@QEAA?AW4Result@1@PEAH@Z
?indexBuffer@SkMesh@@QEBAPEAVIndexBuffer@1@XZ
?indexCount@SkMesh@@QEBA_KXZ
?indexOffset@SkMesh@@QEBA_KXZ
?indices@Builder@SkVertices@@QEAAPEAGXZ
?info@SkBitmap@@QEBAAEBUSkImageInfo@@XZ
?info@SkPixmap@@QEBAAEBUSkImageInfo@@XZ
?init@Builder@SkVertices@@AEAAXAEBUDesc@2@@Z
?init@GrContextThreadSafeProxy@@AEAAXV?$sk_sp@$$CBVGrCaps@@@@V?$sk_sp@VGrThreadSafePipelineBuilder@@@@@Z
?init@GrDeferredDisplayListRecorder@@AEAA_NXZ
?init@GrDirectContext@@MEAA_NXZ
?init@SkCanvas@@AEAAXV?$sk_sp@VSkDevice@@@@@Z
?init@SkStrokeRec@@AEAAXAEBVSkPaint@@W4Style@2@M@Z
?initPixmapsFromSingleAllocation@SkYUVAPixmapInfo@@QEBA_NPEAXQEAVSkPixmap@@@Z
?initSkCaps@SkCapabilities@@IEAAXPEBUShaderCaps@SkSL@@@Z
?initializeColorXform@SkCodec@@AEAA_NAEBUSkImageInfo@@W4Alpha@SkEncodedInfo@@_N@Z
?initializeContext@Compiler@SkSL@@AEAAXPEBUModule@2@W4ProgramKind@2@UProgramSettings@2@V?$basic_string_view@DU?$char_traits@D@std@@@std@@W4ModuleType@2@@Z
?initializeRect@SkRRect@@AEAA_NAEBUSkRect@@@Z
?insert@SkString@@QEAAX_KAEBV1@@Z
?insert@SkString@@QEAAX_KQEBD0@Z
?insert@SkString@@QEAAX_KQEBD@Z
?insert@SkString@@QEAAX_KV?$basic_string_view@DU?$char_traits@D@std@@@std@@@Z
?insert@SkTDStorage@@QEAAPEAXH@Z
?insert@SkTDStorage@@QEAAPEAXHHPEBX@Z
?insertHex@SkString@@QEAAX_KIH@Z
?insertS32@SkString@@QEAAX_KH@Z
?insertS64@SkString@@QEAAX_K_JH@Z
?insertScalar@SkString@@QEAAX_KM@Z
?insertU32@SkString@@QEAAX_KI@Z
?insertU64@SkString@@QEAAX_K0H@Z
?insertUnichar@SkString@@QEAAX_KH@Z
?inset@SkIRect@@QEAAXHH@Z
?inset@SkRRect@@QEAAXMM@Z
?inset@SkRRect@@QEBAXMMPEAV1@@Z
?inset@SkRect@@QEAAXMM@Z
?installMaskPixels@SkBitmap@@QEAA_NAEAUSkMaskBuilder@@@Z
?installPixels@SkBitmap@@QEAA_NAEBUSkImageInfo@@PEAX_K@Z
?installPixels@SkBitmap@@QEAA_NAEBUSkImageInfo@@PEAX_KP6AX11@Z1@Z
?installPixels@SkBitmap@@QEAA_NAEBVSkPixmap@@@Z
?internalConcat44@SkCanvas@@AEAAXAEBVSkM44@@@Z
?internalDrawDeviceWithFilter@SkCanvas@@AEAAXPEAVSkDevice@@0V?$SkSpan@V?$sk_sp@VSkImageFilter@@@@@@AEBVSkPaint@@W4DeviceCompatibleWithFilter@1@AEBVSkColorInfo@@MW4SkTileMode@@_N@Z
?internalDrawPaint@SkCanvas@@AEAAXAEBVSkPaint@@@Z
?internalQuickReject@SkCanvas@@AEAA_NAEBUSkRect@@AEBVSkPaint@@PEBVSkMatrix@@@Z
?internalRestore@SkCanvas@@AEAAXXZ
?internalSave@SkCanvas@@AEAAXXZ
?internalSaveBehind@SkCanvas@@AEAAXPEBUSkRect@@@Z
?internalSaveLayer@SkCanvas@@AEAAXAEBUSaveLayerRec@1@W4SaveLayerStrategy@1@_N@Z
?internalSetMatrix@SkCanvas@@AEAAXAEBVSkM44@@@Z
?internal_dispose@SkRefCntBase@@EEBAXXZ
?internal_dispose@SkWeakRefCnt@@EEBAXXZ
?internal_private_asPaintFilterCanvas@SkCanvas@@EEBAPEAVSkPaintFilterCanvas@@XZ
?internal_private_asPaintFilterCanvas@SkPaintFilterCanvas@@EEBAPEAV1@XZ
?internal_private_getCTFontRef@SkTypeface@@QEBAPEAXXZ
?internal_private_resetClip@SkCanvas@@AEAAXXZ
?interpolate@SkPath@@QEBA_NAEBV1@MPEAV1@@Z
?intersect@SkIRect@@QEAA_NAEBU1@0@Z
?intersect@SkIRect@@QEAA_NAEBU1@@Z
?intersect@SkRect@@QEAA_NAEBU1@0@Z
?intersect@SkRect@@QEAA_NAEBU1@@Z
?intersects@SkRect@@QEBA_NAEBU1@@Z
?intersects@SkRegion@@QEBA_NAEBUSkIRect@@@Z
?intersects@SkRegion@@QEBA_NAEBV1@@Z
?invTransferFn@SkColorSpace@@QEBAXPEAUskcms_TransferFunction@@@Z
?inverseOriginMatrix@SkYUVAInfo@@QEBA?AVSkMatrix@@XZ
?invert@SkM44@@QEBA_NPEAV1@@Z
?invert@SkMatrix@@QEBA?AV?$optional@VSkMatrix@@@std@@XZ
?invert@SkMatrix@@QEBA_NPEAV1@@Z
?isAImage@SkShader@@QEBAPEAVSkImage@@PEAVSkMatrix@@QEAW4SkTileMode@@@Z
?isAImage@SkShader@@QEBA_NXZ
?isAlphaOnly@SkImage@@QEBA_NXZ
?isAlphaUnchanged@SkColorFilter@@QEBA_NXZ
?isAlphaUnchanged@SkRuntimeEffect@@AEBA_NXZ
?isAlwaysDither@SkSurfaceProps@@QEBA_NXZ
?isAnimated@SkCodec@@QEAA?AW4IsAnimated@1@XZ
?isAniso@SkSamplingOptions@@QEBA_NXZ
?isAntiAlias@SkPaint@@QEBA_NXZ
?isArray@Uniform@SkRuntimeEffect@@QEBA_NXZ
?isAtEnd@SkFILEStream@@UEBA_NXZ
?isAtEnd@SkMemoryStream@@UEBA_NXZ
?isBaselineSnap@SkFont@@QEBA_NXZ
?isBold@SkTypeface@@QEBA_NXZ
?isClipEmpty@SkCanvas@@UEBA_NXZ
?isClipRect@SkCanvas@@UEBA_NXZ
?isCloseLine@Iter@SkPath@@QEBA_NXZ
?isClosed@SkContourMeasure@@QEBA_NXZ
?isClosed@SkPathMeasure@@QEAA_NXZ
?isClosedContour@Iter@SkPath@@QEBA_NXZ
?isColor@Uniform@SkRuntimeEffect@@QEBA_NXZ
?isColorFilterNode@SkImageFilter@@QEBA_NPEAPEAVSkColorFilter@@@Z
?isCompatible@SkSurface@@QEBA_NAEBVGrSurfaceCharacterization@@@Z
?isComplex@SkRRect@@QEBA_NXZ
?isComplex@SkRegion@@QEBA_NXZ
?isConvex@SkPath@@QEBA_NXZ
?isDeviceLost@GrDirectContext@@QEAA_NXZ
?isDither@SkPaint@@QEBA_NXZ
?isEmbeddedBitmaps@SkFont@@QEBA_NXZ
?isEmbolden@SkFont@@QEBA_NXZ
?isEmpty64@SkIRect@@QEBA_NXZ
?isEmpty@SkData@@QEBA_NXZ
?isEmpty@SkDataTable@@QEBA_NXZ
?isEmpty@SkIRect@@QEBA_NXZ
?isEmpty@SkImageInfo@@QEBA_NXZ
?isEmpty@SkPath@@QEBA_NXZ
?isEmpty@SkPathBuilder@@QEBA_NXZ
?isEmpty@SkRRect@@QEBA_NXZ
?isEmpty@SkRect@@QEBA_NXZ
?isEmpty@SkRegion@@QEBA_NXZ
?isEmpty@SkString@@QEBA_NXZ
?isFillStyle@SkStrokeRec@@QEBA_NXZ
?isFinished@SkAnimatedImage@@QEBA_NXZ
?isFinite@SkM44@@QEBA_NXZ
?isFinite@SkMatrix@@QEBA_NXZ
?isFinite@SkPath@@QEBA_NXZ
?isFinite@SkPathBuilder@@QEBA_NXZ
?isFinite@SkPathRef@@QEBA_NXZ
?isFinite@SkPoint3@@QEBA_NXZ
?isFinite@SkPoint@@QEBA_NXZ
?isFinite@SkRect@@QEBA_NXZ
?isFixedPitch@SkTypeface@@QEBA_NXZ
?isForceAutoHinting@SkFont@@QEBA_NXZ
?isFramebufferOnly@GrBackendRenderTarget@@QEBA_NXZ
?isHairlineStyle@SkStrokeRec@@QEBA_NXZ
?isIdentity@SkMatrix@@QEBA_NXZ
?isImmutable@SkBitmap@@QEBA_NXZ
?isImmutable@SkPixelRef@@QEBA_NXZ
?isInitialEmptyPathRef@SkPathRef@@QEBA_NXZ
?isInitialized@GrBackendSemaphore@@QEBA_NXZ
?isInterpolatable@SkPath@@QEBA_NAEBV1@@Z
?isInverseFillType@SkPath@@QEBA_NXZ
?isInverseFillType@SkPathBuilder@@QEBA_NXZ
?isItalic@SkTypeface@@QEBA_NXZ
?isLCD@SkTextBlobRunIterator@@QEBA_NXZ
?isLastContourClosed@SkPath@@QEBA_NXZ
?isLine@SkPath@@QEBA_NQEAUSkPoint@@@Z
?isLinearMetrics@SkFont@@QEBA_NXZ
?isMipMapped@GrSurfaceCharacterization@@QEBA_NXZ
?isMockStencilFormat@GrBackendFormat@@QEBA_NXZ
?isNinePatch@SkRRect@@QEBA_NXZ
?isNull@SkBitmap@@QEBA_NXZ
?isNumericalTransferFn@SkColorSpace@@QEBA_NPEAUskcms_TransferFunction@@@Z
?isOpaque@SkBitmap@@QEBA_NXZ
?isOpaque@SkColorInfo@@QEBA_NXZ
?isOpaque@SkImage@@QEBA_NXZ
?isOpaque@SkImageInfo@@QEBA_NXZ
?isOpaque@SkPixmap@@QEBA_NXZ
?isOpaque@SkShader@@UEBA_NXZ
?isOval@SkPath@@QEBA_NPEAUSkRect@@@Z
?isOval@SkPathRef@@QEBA?AV?$optional@USkPathOvalInfo@@@std@@XZ
?isOval@SkRRect@@QEBA_NXZ
?isProtected@GrBackendRenderTarget@@QEBA_NXZ
?isProtected@GrBackendTexture@@QEBA_NXZ
?isProtected@GrSurfaceCharacterization@@QEBA?AW4Protected@skgpu@@XZ
?isProtected@SkImage@@QEBA_NXZ
?isProtected@SkImageGenerator@@QEBA_NXZ
?isRRect@SkPath@@QEBA_NPEAVSkRRect@@@Z
?isRRect@SkPathRef@@QEBA?AV?$optional@USkPathRRectInfo@@@std@@XZ
?isRect@SkPath@@QEBA_NPEAUSkRect@@PEA_NPEAW4SkPathDirection@@@Z
?isRect@SkRRect@@QEBA_NXZ
?isRect@SkRegion@@QEBA_NXZ
?isSRGB@SkColorSpace@@QEBA_NXZ
?isSameTexture@GrBackendTexture@@QEAA_NAEBV1@@Z
?isScaleTranslate@SkMatrix@@QEBA_NXZ
?isSimilarity@SkMatrix@@QEBA_NM@Z
?isSimple@SkRRect@@QEBA_NXZ
?isSorted@SkRect@@QEBA_NXZ
?isSrcOver@SkPaint@@QEBA_NXZ
?isSubpixel@SkFont@@QEBA_NXZ
?isSupported@SkYUVAPixmapInfo@@QEBA_NAEBVSupportedDataTypes@1@@Z
?isTextureGenerator@GrTextureGenerator@@UEBA_NXZ
?isTextureGenerator@SkImageGenerator@@UEBA_NXZ
?isTextureable@GrSurfaceCharacterization@@QEBA_NXZ
?isTranslate@SkMatrix@@QEBA_NXZ
?isTriviallyIdentity@SkMatrix@@AEBA_NXZ
?isUseDeviceIndependentFonts@SkSurfaceProps@@QEBA_NXZ
?isValid@Builder@SkVertices@@QEBA_NXZ
?isValid@GrBackendFormat@@QEBA_NXZ
?isValid@GrBackendRenderTarget@@QEBA_NXZ
?isValid@GrBackendTexture@@QEBA_NXZ
?isValid@GrContextThreadSafeProxy@@QEBA_NXZ
?isValid@GrSurfaceCharacterization@@QEBA_NXZ
?isValid@GrYUVABackendTextureInfo@@QEBA_NXZ
?isValid@GrYUVABackendTextures@@QEBA_NXZ
?isValid@MutableTextureState@skgpu@@QEBA_NXZ
?isValid@SkFILEStream@@QEBA_NXZ
?isValid@SkFILEWStream@@QEBA_NXZ
?isValid@SkImageGenerator@@QEBA_NPEAVSkRecorder@@@Z
?isValid@SkMesh@@QEBA_NXZ
?isValid@SkPath@@QEBA_NXZ
?isValid@SkPathRef@@QEBA_NXZ
?isValid@SkRRect@@QEBA_NXZ
?isValid@SkRegion@@AEBA_NXZ
?isValid@SkYUVAInfo@@QEBA_NXZ
?isValid@SkYUVAPixmapInfo@@QEBA_NXZ
?isValid@SkYUVAPixmaps@@QEBA_NXZ
?isValidCharacterizationForVulkan@GrContextThreadSafeProxy@@EEAA_NV?$sk_sp@$$CBVGrCaps@@@@_NW4Mipmapped@skgpu@@W4Protected@4@11@Z
?isVolatile@SkPath@@QEBA_NXZ
?isZero@SkPoint@@QEBA_NXZ
?isZeroLengthSincePoint@SkPath@@AEBA_NH@Z
?isZeroLengthSincePoint@SkPathBuilder@@AEBA_NH@Z
?iset@SkPoint@@QEAAXAEBUSkIPoint@@@Z
?iset@SkPoint@@QEAAXHH@Z
?iter@SkPath@@QEBA?AVSkPathIter@@XZ
?iter@SkPathBuilder@@QEBA?AVSkPathIter@@XZ
?join@SkIRect@@QEAAXAEBU1@@Z
?join@SkRect@@QEAAXAEBU1@@Z
?joinNonEmptyArg@SkRect@@QEAAXAEBU1@@Z
?joinPossiblyEmptyRect@SkRect@@QEAAXAEBU1@@Z
?kAScaleX@SkMatrix@@2HB
?kAScaleY@SkMatrix@@2HB
?kASkewX@SkMatrix@@2HB
?kASkewY@SkMatrix@@2HB
?kATransX@SkMatrix@@2HB
?kATransY@SkMatrix@@2HB
?kAllFlags@SkFont@@0IB
?kAllMasks@SkMatrix@@0HB
?kCapCount@SkPaint@@2HB
?kCapacityMultiple@SkContainerAllocator@@0_JB
?kDataTypeCnt@SkYUVAPixmapInfo@@2HB
?kDefaultHdrReferenceWhite@Agtm@skhdr@@2MB
?kDiscardWrite_BackendHandleAccess@SkSurface@@2W4BackendHandleAccess@1@B
?kFinished@SkAnimatedImage@@2HB
?kFlushRead_BackendHandleAccess@SkSurface@@2W4BackendHandleAccess@1@B
?kFlushWrite_BackendHandleAccess@SkSurface@@2W4BackendHandleAccess@1@B
?kJoinCount@SkPaint@@2HB
?kMCRecCount@SkCanvas@@0HB
?kMPersp0@SkMatrix@@2HB
?kMPersp1@SkMatrix@@2HB
?kMPersp2@SkMatrix@@2HB
?kMScaleX@SkMatrix@@2HB
?kMScaleY@SkMatrix@@2HB
?kMSkewX@SkMatrix@@2HB
?kMSkewY@SkMatrix@@2HB
?kMTransX@SkMatrix@@2HB
?kMTransY@SkMatrix@@2HB
?kMaxAttributes@SkMeshSpecification@@2_KB
?kMaxContrastInclusive@SkSurfaceProps@@2MB
?kMaxFiltersPerLayer@SkCanvas@@2HB
?kMaxGammaExclusive@SkSurfaceProps@@2MB
?kMaxPlanes@GrYUVABackendTextureInfo@@2HB
?kMaxPlanes@SkYUVAInfo@@2HB
?kMaxPlanes@SkYUVAPixmapInfo@@2HB
?kMaxPlanes@SkYUVAPixmaps@@2HB
?kMaxStride@SkMeshSpecification@@2_KB
?kMaxSubclassSize@GrBackendFormat@@0_KB
?kMaxSubclassSize@GrBackendRenderTarget@@0_KB
?kMaxSubclassSize@GrBackendSemaphore@@0_KB
?kMaxSubclassSize@GrBackendTexture@@0_KB
?kMaxSubclassSize@MutableTextureState@skgpu@@0_KB
?kMaxVaryings@SkMeshSpecification@@2_KB
?kMinContrastInclusive@SkSurfaceProps@@2MB
?kMinGammaInclusive@SkSurfaceProps@@2MB
?kNeedNewImageUniqueID@SkImageGenerator@@1HB
?kNoFrame@SkCodec@@2HB
?kNumColors@SkOverdrawColorFilter@@2HB
?kORableMasks@SkMatrix@@0HB
?kOffsetAlignment@SkMeshSpecification@@2_KB
?kOnlyPerspectiveValid_Mask@SkMatrix@@0HB
?kOpCnt@SkRegion@@2HB
?kOpCount@SkRegion@@0HB
?kRectRegionRuns@SkRegion@@0HB
?kRectRunHeadPtr@SkRegion@@0QEBURunHead@1@EB
?kRectStaysRect_Mask@SkMatrix@@0HB
?kRepetitionCountInfinite@SkCodec@@2HB
?kSizeInMemory@SkRRect@@2_KB
?kStrideAlignment@SkMeshSpecification@@2_KB
?kStyleCount@SkPaint@@2HB
?kStyleCount@SkStrokeRec@@2HB
?kUnknown_Mask@SkMatrix@@0HB
?kYUVAChannelCount@SkYUVAInfo@@2HB
?left@SkIRect@@QEBAHXZ
?left@SkRect@@QEBAMXZ
?legacyMakeTypeface@SkFontMgr@@QEBA?AV?$sk_sp@VSkTypeface@@@@QEBDVSkFontStyle@@@Z
?length@SkContourMeasure@@QEBAMXZ
?length@SkPoint3@@QEBAMXZ
?length@SkPoint@@QEBAMXZ
?length@SkV2@@QEBAMXZ
?length@SkV3@@QEBAMXZ
?length@SkV4@@QEBAMXZ
?lengthSquared@SkV2@@QEBAMXZ
?lengthSquared@SkV3@@QEBAMXZ
?lengthSquared@SkV4@@QEBAMXZ
?lineTo@SkPathBuilder@@QEAAAEAV1@MM@Z
?lineTo@SkPathBuilder@@QEAAAEAV1@USkPoint@@@Z
?make@SkTextBlobBuilder@@QEAA?AV?$sk_sp@VSkTextBlob@@@@XZ
?makeAlphaType@SkColorInfo@@QEBA?AV1@W4SkAlphaType@@@Z
?makeAlphaType@SkImageInfo@@QEBA?AU1@W4SkAlphaType@@@Z
?makeAnalysisCanvas@SkStrikeServer@@QEAA?AV?$unique_ptr@VSkCanvas@@U?$default_delete@VSkCanvas@@@std@@@std@@HHAEBVSkSurfaceProps@@V?$sk_sp@VSkColorSpace@@@@_N2@Z
?makeBitmapSurface@Recorder@skcpu@@QEAA?AV?$sk_sp@VSkSurface@@@@AEBUSkImageInfo@@PEBVSkSurfaceProps@@@Z
?makeBitmapSurface@Recorder@skcpu@@QEAA?AV?$sk_sp@VSkSurface@@@@AEBUSkImageInfo@@_KPEBVSkSurfaceProps@@@Z
?makeBlender@SkRuntimeEffect@@QEBA?AV?$sk_sp@VSkBlender@@@@V?$sk_sp@$$CBVSkData@@@@V?$SkSpan@$$CBVChildPtr@SkRuntimeEffect@@@@@Z
?makeBlender@SkRuntimeEffectBuilder@@QEBA?AV?$sk_sp@VSkBlender@@@@XZ
?makeCPURecorder@GrRecordingContext@@QEAA?AV?$unique_ptr@VRecorder@skcpu@@U?$default_delete@VRecorder@skcpu@@@std@@@std@@XZ
?makeCaptureCanvas@Recorder@skcpu@@EEAAPEAVSkCanvas@@PEAV3@@Z
?makeClone@SkTypeface@@QEBA?AV?$sk_sp@VSkTypeface@@@@AEBUSkFontArguments@@@Z
?makeColorFilter@SkRuntimeEffect@@QEBA?AV?$sk_sp@VSkColorFilter@@@@V?$sk_sp@$$CBVSkData@@@@@Z
?makeColorFilter@SkRuntimeEffect@@QEBA?AV?$sk_sp@VSkColorFilter@@@@V?$sk_sp@$$CBVSkData@@@@QEAV2@_K@Z
?makeColorFilter@SkRuntimeEffect@@QEBA?AV?$sk_sp@VSkColorFilter@@@@V?$sk_sp@$$CBVSkData@@@@V?$SkSpan@$$CBVChildPtr@SkRuntimeEffect@@@@@Z
?makeColorFilter@SkRuntimeEffectBuilder@@QEBA?AV?$sk_sp@VSkColorFilter@@@@XZ
?makeColorSpace@SkColorInfo@@QEBA?AV1@V?$sk_sp@VSkColorSpace@@@@@Z
?makeColorSpace@SkImageInfo@@QEBA?AU1@V?$sk_sp@VSkColorSpace@@@@@Z
?makeColorSpin@SkColorSpace@@QEBA?AV?$sk_sp@VSkColorSpace@@@@XZ
?makeColorType@SkColorInfo@@QEBA?AV1@W4SkColorType@@@Z
?makeColorType@SkImageInfo@@QEBA?AU1@W4SkColorType@@@Z
?makeComposed@SkColorFilter@@QEBA?AV?$sk_sp@VSkColorFilter@@@@V2@@Z
?makeDimensions@SkImageInfo@@QEBA?AU1@USkISize@@@Z
?makeDimensions@SkYUVAInfo@@QEBA?AV1@USkISize@@@Z
?makeFillType@SkPath@@QEBA?AV1@W4SkPathFillType@@@Z
?makeFromData@SkFontMgr@@QEBA?AV?$sk_sp@VSkTypeface@@@@V?$sk_sp@VSkData@@@@H@Z
?makeFromFile@SkFontMgr@@QEBA?AV?$sk_sp@VSkTypeface@@@@QEBDH@Z
?makeFromStream@SkFontMgr@@QEBA?AV?$sk_sp@VSkTypeface@@@@V?$unique_ptr@VSkStreamAsset@@U?$default_delete@VSkStreamAsset@@@std@@@std@@AEBUSkFontArguments@@@Z
?makeFromStream@SkFontMgr@@QEBA?AV?$sk_sp@VSkTypeface@@@@V?$unique_ptr@VSkStreamAsset@@U?$default_delete@VSkStreamAsset@@@std@@@std@@H@Z
?makeImageSnapshot@SkSurface@@QEAA?AV?$sk_sp@VSkImage@@@@AEBUSkIRect@@@Z
?makeImageSnapshot@SkSurface@@QEAA?AV?$sk_sp@VSkImage@@@@XZ
?makeInset@SkIRect@@QEBA?AU1@HH@Z
?makeInset@SkRect@@QEBA?AU1@MM@Z
?makeInterpolate@SkPath@@QEBA?AV1@AEBV1@M@Z
?makeIsVolatile@SkPath@@QEBA?AV1@_N@Z
?makeLinearGamma@SkColorSpace@@QEBA?AV?$sk_sp@VSkColorSpace@@@@XZ
?makeNonTextureImage@SkImage@@QEBA?AV?$sk_sp@VSkImage@@@@PEAVGrDirectContext@@@Z
?makeOffset@SkIRect@@QEBA?AU1@HH@Z
?makeOffset@SkIRect@@QEBA?AU1@USkIPoint@@@Z
?makeOffset@SkPath@@QEBA?AV1@MM@Z
?makeOffset@SkRRect@@QEBA?AV1@MM@Z
?makeOffset@SkRect@@QEBA?AU1@MM@Z
?makeOffset@SkRect@@QEBA?AU1@USkPoint@@@Z
?makeOutset@SkIRect@@QEBA?AU1@HH@Z
?makeOutset@SkRect@@QEBA?AU1@MM@Z
?makePictureSnapshot@SkDrawable@@QEAA?AV?$sk_sp@VSkPicture@@@@XZ
?makeRasterImage@SkImage@@QEBA?AV?$sk_sp@VSkImage@@@@PEAVGrDirectContext@@W4CachingHint@1@@Z
?makeRasterImage@SkImage@@QEBA?AV?$sk_sp@VSkImage@@@@W4CachingHint@1@@Z
?makeRawShader@SkImage@@QEBA?AV?$sk_sp@VSkShader@@@@AEBUSkSamplingOptions@@AEBVSkMatrix@@@Z
?makeRawShader@SkImage@@QEBA?AV?$sk_sp@VSkShader@@@@AEBUSkSamplingOptions@@PEBVSkMatrix@@@Z
?makeRawShader@SkImage@@QEBA?AV?$sk_sp@VSkShader@@@@W4SkTileMode@@0AEBUSkSamplingOptions@@AEBVSkMatrix@@@Z
?makeRawShader@SkImage@@QEBA?AV?$sk_sp@VSkShader@@@@W4SkTileMode@@0AEBUSkSamplingOptions@@PEBVSkMatrix@@@Z
?makeRecorder@Context@skcpu@@QEBA?AV?$unique_ptr@VRecorder@skcpu@@U?$default_delete@VRecorder@skcpu@@@std@@@std@@XZ
?makeSRGBGamma@SkColorSpace@@QEBA?AV?$sk_sp@VSkColorSpace@@@@XZ
?makeScale@SkPath@@QEBA?AV1@MM@Z
?makeScale@SkPoint3@@QEBA?AU1@M@Z
?makeScaled@SkImage@@QEBA?AV?$sk_sp@VSkImage@@@@AEBUSkImageInfo@@AEBUSkSamplingOptions@@@Z
?makeScaled@SkImage@@QEBA?AV?$sk_sp@VSkImage@@@@PEAVSkRecorder@@AEBUSkImageInfo@@AEBUSkSamplingOptions@@@Z
?makeScaled@SkImage@@QEBA?AV?$sk_sp@VSkImage@@@@PEAVSkRecorder@@AEBUSkImageInfo@@AEBUSkSamplingOptions@@AEBVSkSurfaceProps@@@Z
?makeShader@SkBitmap@@QEBA?AV?$sk_sp@VSkShader@@@@AEBUSkSamplingOptions@@AEBVSkMatrix@@@Z
?makeShader@SkBitmap@@QEBA?AV?$sk_sp@VSkShader@@@@AEBUSkSamplingOptions@@PEBVSkMatrix@@@Z
?makeShader@SkBitmap@@QEBA?AV?$sk_sp@VSkShader@@@@W4SkTileMode@@0AEBUSkSamplingOptions@@AEBVSkMatrix@@@Z
?makeShader@SkBitmap@@QEBA?AV?$sk_sp@VSkShader@@@@W4SkTileMode@@0AEBUSkSamplingOptions@@PEBVSkMatrix@@@Z
?makeShader@SkImage@@QEBA?AV?$sk_sp@VSkShader@@@@AEBUSkSamplingOptions@@AEBVSkMatrix@@@Z
?makeShader@SkImage@@QEBA?AV?$sk_sp@VSkShader@@@@AEBUSkSamplingOptions@@PEBVSkMatrix@@@Z
?makeShader@SkImage@@QEBA?AV?$sk_sp@VSkShader@@@@W4SkTileMode@@0AEBUSkSamplingOptions@@AEBVSkMatrix@@@Z
?makeShader@SkImage@@QEBA?AV?$sk_sp@VSkShader@@@@W4SkTileMode@@0AEBUSkSamplingOptions@@PEBVSkMatrix@@@Z
?makeShader@SkPicture@@QEBA?AV?$sk_sp@VSkShader@@@@W4SkTileMode@@0W4SkFilterMode@@@Z
?makeShader@SkPicture@@QEBA?AV?$sk_sp@VSkShader@@@@W4SkTileMode@@0W4SkFilterMode@@PEBVSkMatrix@@PEBUSkRect@@@Z
?makeShader@SkRuntimeEffect@@QEBA?AV?$sk_sp@VSkShader@@@@V?$sk_sp@$$CBVSkData@@@@QEAV2@_KPEBVSkMatrix@@@Z
?makeShader@SkRuntimeEffect@@QEBA?AV?$sk_sp@VSkShader@@@@V?$sk_sp@$$CBVSkData@@@@V?$SkSpan@$$CBVChildPtr@SkRuntimeEffect@@@@PEBVSkMatrix@@@Z
?makeShader@SkRuntimeEffectBuilder@@QEBA?AV?$sk_sp@VSkShader@@@@PEBVSkMatrix@@@Z
?makeSorted@SkIRect@@QEBA?AU1@XZ
?makeSorted@SkRect@@QEBA?AU1@XZ
?makeSubsampling@SkYUVAInfo@@QEBA?AV1@W4Subsampling@1@@Z
?makeSurface@SkCanvas@@QEAA?AV?$sk_sp@VSkSurface@@@@AEBUSkImageInfo@@PEBVSkSurfaceProps@@@Z
?makeSurface@SkSurface@@QEAA?AV?$sk_sp@VSkSurface@@@@AEBUSkImageInfo@@@Z
?makeSurface@SkSurface@@QEAA?AV?$sk_sp@VSkSurface@@@@HH@Z
?makeTemporaryImage@SkSurface@@QEAA?AV?$sk_sp@VSkImage@@@@XZ
?makeTexture2D@GrBackendFormat@@QEBA?AV1@XZ
?makeToggleInverseFillType@SkPath@@QEBA?AV1@XZ
?makeTransform@SkPath@@QEBA?AV1@AEBVSkMatrix@@@Z
?makeUnoptimizedClone@SkRuntimeEffect@@AEAA?AV?$sk_sp@VSkRuntimeEffect@@@@XZ
?makeWH@SkImageInfo@@QEBA?AU1@HH@Z
?makeWithColorFilter@SkShader@@QEBA?AV?$sk_sp@VSkShader@@@@V?$sk_sp@VSkColorFilter@@@@@Z
?makeWithLocalMatrix@SkImageFilter@@QEBA?AV?$sk_sp@VSkImageFilter@@@@AEBVSkMatrix@@@Z
?makeWithLocalMatrix@SkShader@@QEBA?AV?$sk_sp@VSkShader@@@@AEBVSkMatrix@@@Z
?makeWithSize@SkFont@@QEBA?AV1@M@Z
?makeWithWorkingColorSpace@SkColorFilter@@QEBA?AV?$sk_sp@VSkColorFilter@@@@V?$sk_sp@VSkColorSpace@@@@@Z
?makeWithWorkingColorSpace@SkShader@@QEBA?AV?$sk_sp@VSkShader@@@@V?$sk_sp@VSkColorSpace@@@@0@Z
?map@SkM44@@QEBA?AUSkV4@@MMMM@Z
?mapDstScaleTranslate@SkLatticeIter@@QEAAXAEBVSkMatrix@@@Z
?mapHomogeneousPoint@SkMatrix@@QEBA?AUSkPoint3@@U2@@Z
?mapHomogeneousPoints@SkMatrix@@QEBAXV?$SkSpan@USkPoint3@@@@V?$SkSpan@$$CBUSkPoint3@@@@@Z
?mapOrigin@SkMatrix@@QEBA?AUSkPoint@@XZ
?mapPoint@SkMatrix@@QEBA?AUSkPoint@@U2@@Z
?mapPointAffine@SkMatrix@@QEBA?AUSkPoint@@U2@@Z
?mapPointPerspective@SkMatrix@@AEBA?AUSkPoint@@U2@@Z
?mapPointToHomogeneous@SkMatrix@@QEBA?AUSkPoint3@@USkPoint@@@Z
?mapPoints@SkMatrix@@QEBAXV?$SkSpan@USkPoint@@@@@Z
?mapPoints@SkMatrix@@QEBAXV?$SkSpan@USkPoint@@@@V?$SkSpan@$$CBUSkPoint@@@@@Z
?mapPointsToHomogeneous@SkMatrix@@QEBAXV?$SkSpan@USkPoint3@@@@V?$SkSpan@$$CBUSkPoint@@@@@Z
?mapRadius@SkMatrix@@QEBAMM@Z
?mapRect@SkMatrix@@QEBA?AUSkRect@@AEBU2@@Z
?mapRect@SkMatrix@@QEBA_NPEAUSkRect@@@Z
?mapRect@SkMatrix@@QEBA_NPEAUSkRect@@AEBU2@@Z
?mapRectScaleTranslate@SkMatrix@@QEBAXPEAUSkRect@@AEBU2@@Z
?mapRectToQuad@SkMatrix@@QEBAXQEAUSkPoint@@AEBUSkRect@@@Z
?mapVector@SkMatrix@@QEBA?AUSkPoint@@MM@Z
?mapVector@SkMatrix@@QEBA?AUSkPoint@@U2@@Z
?mapVectors@SkMatrix@@QEBAXV?$SkSpan@USkPoint@@@@@Z
?mapVectors@SkMatrix@@QEBAXV?$SkSpan@USkPoint@@@@V?$SkSpan@$$CBUSkPoint@@@@@Z
?matchFamily@SkFontMgr@@QEBA?AV?$sk_sp@VSkFontStyleSet@@@@QEBD@Z
?matchFamilyStyle@SkFontMgr@@QEBA?AV?$sk_sp@VSkTypeface@@@@QEBDAEBVSkFontStyle@@@Z
?matchFamilyStyleCharacter@SkFontMgr@@QEBA?AV?$sk_sp@VSkTypeface@@@@QEBDAEBVSkFontStyle@@QEAPEBDHH@Z
?matchStyleCSS3@SkFontStyleSet@@IEAA?AV?$sk_sp@VSkTypeface@@@@AEBVSkFontStyle@@@Z
?maxRenderTargetSize@GrRecordingContext@@QEBAHXZ
?maxSurfaceSampleCountForColorType@GrContextThreadSafeProxy@@QEBAHW4SkColorType@@@Z
?maxSurfaceSampleCountForColorType@GrContext_Base@@QEBAHW4SkColorType@@@Z
?maxSurfaceSampleCountForColorType@GrRecordingContext@@QEBAHW4SkColorType@@@Z
?maxTextureSize@GrRecordingContext@@QEBAHXZ
?measureText@SkFont@@QEBAMPEBX_KW4SkTextEncoding@@PEAUSkRect@@@Z
?measureText@SkFont@@QEBAMPEBX_KW4SkTextEncoding@@PEAUSkRect@@PEBVSkPaint@@@Z
?mergeRun@SkTextBlobBuilder@@AEAA_NAEBVSkFont@@W4GlyphPositioning@SkTextBlob@@IUSkPoint@@@Z
?minRowBytes64@SkImageInfo@@QEBA_KXZ
?minRowBytes@SkImageInfo@@QEBA_KXZ
?mipmapped@GrBackendTexture@@QEBA?AW4Mipmapped@skgpu@@XZ
?mipmapped@GrYUVABackendTextureInfo@@QEBA?AW4Mipmapped@skgpu@@XZ
?mode@SkMesh@@QEBA?AW4Mode@1@XZ
?moduleForProgramKind@Compiler@SkSL@@QEAAPEBUModule@2@W4ProgramKind@2@@Z
?move@SkFILEStream@@UEAA_NJ@Z
?move@SkMemoryStream@@UEAA_NJ@Z
?move@SkStream@@UEAA_NJ@Z
?moveTail@SkTDStorage@@AEAAXHHH@Z
?moveTo@SkPathBuilder@@QEAAAEAV1@MM@Z
?moveTo@SkPathBuilder@@QEAAAEAV1@USkPoint@@@Z
?needToApply@SkStrokeRec@@QEBA_NXZ
?needsCTM@SkPathEffect@@QEBA_NXZ
?needsNewGenID@SkPixelRef@@AEAAXXZ
?negate@SkPoint@@QEAAXXZ
?newTracingSection@SkEventTracer@@UEAAXPEBD@Z
?newline@SkWStream@@QEAA_NXZ
?next@Cliperator@SkRegion@@QEAAXXZ
?next@Iter@SkOSFile@@QEAA_NPEAVSkString@@_N@Z
?next@Iter@SkPath@@QEAA?AV?$optional@UIterRec@SkPath@@@std@@XZ
?next@Iter@SkPath@@QEAA?AW4Verb@2@QEAUSkPoint@@@Z
?next@Iter@SkTextBlob@@QEAA_NPEAURun@12@@Z
?next@Iterator@SkRegion@@QEAAXXZ
?next@ProgramIterator@GrDeferredDisplayList@@QEAAXXZ
?next@RawIter@SkPath@@QEAA?AV?$optional@UIterRec@SkPath@@@std@@XZ
?next@RawIter@SkPath@@QEAA?AW4Verb@2@QEAUSkPoint@@@Z
?next@SkContourMeasureIter@@QEAA?AV?$sk_sp@VSkContourMeasure@@@@XZ
?next@SkLatticeIter@@QEAA_NPEAUSkIRect@@PEAUSkRect@@PEA_NPEAI@Z
?next@SkLatticeIter@@QEAA_NPEAUSkRect@@0PEA_NPEAI@Z
?next@SkPathIter@@QEAA?AV?$optional@URec@SkPathIter@@@std@@XZ
?next@SkTextBlobRunIterator@@QEAAXXZ
?next@Spanerator@SkRegion@@QEAA_NPEAH0@Z
?nextContour@SkPathMeasure@@QEAA_NXZ
?nextScanline@SkCodec@@QEBAHXZ
?normalize@SkPoint3@@QEAA_NXZ
?normalize@SkPoint@@QEAA_NXZ
?normalize@SkV2@@QEBA?AU1@XZ
?normalize@SkV3@@QEBA?AU1@XZ
?normalize@SkV4@@QEBA?AU1@XZ
?normalizePerspective@SkM44@@QEAAXXZ
?normalizePerspective@SkMatrix@@QEAAXXZ
?nothingToDraw@SkPaint@@QEBA_NXZ
?notifyAddedToCache@SkPixelRef@@QEAAXXZ
?notifyAddedToCache@SkTextBlob@@AEBAXIP6AXII@Z@Z
?notifyContentWillChange@SkSurface@@QEAAXW4ContentChangeMode@1@@Z
?notifyDrawingChanged@SkDrawable@@QEAAXXZ
?notifyPixelsChanged@SkBitmap@@QEBAXXZ
?notifyPixelsChanged@SkPixelRef@@QEAAXXZ
?numBlocksAllocated@SkDeque@@AEBAHXZ
?numChannelsInPlane@SkYUVAInfo@@QEBAHH@Z
?numPlanes@GrYUVABackendTextureInfo@@QEBAHXZ
?numPlanes@GrYUVABackendTextures@@QEBAHXZ
?numPlanes@SkYUVAInfo@@QEBAHXZ
?numPlanes@SkYUVAPixmapInfo@@QEBAHXZ
?numPlanes@SkYUVAPixmaps@@QEBAHXZ
?numRectsToDraw@SkLatticeIter@@QEBAHXZ
?offset@SkIRect@@QEAAXAEBUSkIPoint@@@Z
?offset@SkIRect@@QEAAXHH@Z
?offset@SkPathBuilder@@QEAAAEAV1@MM@Z
?offset@SkPoint@@QEAAXMM@Z
?offset@SkRRect@@QEAAXMM@Z
?offset@SkRect@@QEAAXAEBUSkPoint@@@Z
?offset@SkRect@@QEAAXMM@Z
?offset@SkTextBlobRunIterator@@QEBAAEBUSkPoint@@XZ
?offsetTo@SkIRect@@QEAAXHH@Z
?offsetTo@SkRect@@QEAAXMM@Z
?onAccessTopLayerPixels@SkCanvas@@MEAA_NPEAVSkPixmap@@@Z
?onAccessTopLayerPixels@SkPaintFilterCanvas@@MEAA_NPEAVSkPixmap@@@Z
?onApproximateBytesUsed@SkDrawable@@MEAA_KXZ
?onClipPath@SkCanvas@@MEAAXAEBVSkPath@@W4SkClipOp@@W4ClipEdgeStyle@1@@Z
?onClipPath@SkNWayCanvas@@MEAAXAEBVSkPath@@W4SkClipOp@@W4ClipEdgeStyle@SkCanvas@@@Z
?onClipRRect@SkCanvas@@MEAAXAEBVSkRRect@@W4SkClipOp@@W4ClipEdgeStyle@1@@Z
?onClipRRect@SkNWayCanvas@@MEAAXAEBVSkRRect@@W4SkClipOp@@W4ClipEdgeStyle@SkCanvas@@@Z
?onClipRect@SkCanvas@@MEAAXAEBUSkRect@@W4SkClipOp@@W4ClipEdgeStyle@1@@Z
?onClipRect@SkNWayCanvas@@MEAAXAEBUSkRect@@W4SkClipOp@@W4ClipEdgeStyle@SkCanvas@@@Z
?onClipRegion@SkCanvas@@MEAAXAEBVSkRegion@@W4SkClipOp@@@Z
?onClipRegion@SkNWayCanvas@@MEAAXAEBVSkRegion@@W4SkClipOp@@@Z
?onClipShader@SkCanvas@@MEAAXV?$sk_sp@VSkShader@@@@W4SkClipOp@@@Z
?onClipShader@SkNWayCanvas@@MEAAXV?$sk_sp@VSkShader@@@@W4SkClipOp@@@Z
?onComputeBounds@SkTypeface@@MEBA_NPEAUSkRect@@@Z
?onConvertGlyphRunListToSlug@SkCanvas@@MEAA?AV?$sk_sp@VSlug@gpu@sktext@@@@AEBVGlyphRunList@sktext@@AEBVSkPaint@@@Z
?onCopyTableData@SkTypeface@@MEBA?AV?$sk_sp@VSkData@@@@I@Z
?onCountFamilies@SkOrderedFontMgr@@MEBAHXZ
?onCreateScalerContextAsProxyTypeface@SkTypeface@@MEBA?AV?$unique_ptr@VSkScalerContext@@U?$default_delete@VSkScalerContext@@@std@@@std@@AEBUSkScalerContextEffects@@PEBVSkDescriptor@@PEAV1@@Z
?onCreateStyleSet@SkOrderedFontMgr@@MEBA?AV?$sk_sp@VSkFontStyleSet@@@@H@Z
?onDimensionsSupported@SkCodec@@MEAA_NAEBUSkISize@@@Z
?onDiscard@SkCanvas@@MEAAXXZ
?onDoSaveBehind@SkCanvas@@MEAA_NPEBUSkRect@@@Z
?onDoSaveBehind@SkNWayCanvas@@MEAA_NPEBUSkRect@@@Z
?onDoSaveBehind@SkNoDrawCanvas@@MEAA_NPEBUSkRect@@@Z
?onDraw@SkAnimatedImage@@MEAAXPEAVSkCanvas@@@Z
?onDrawAnnotation@SkCanvas@@MEAAXAEBUSkRect@@QEBDPEAVSkData@@@Z
?onDrawAnnotation@SkNWayCanvas@@MEAAXAEBUSkRect@@QEBDPEAVSkData@@@Z
?onDrawAnnotation@SkNoDrawCanvas@@MEAAXAEBUSkRect@@QEBDPEAVSkData@@@Z
?onDrawAnnotation@SkOverdrawCanvas@@UEAAXAEBUSkRect@@QEBDPEAVSkData@@@Z
?onDrawAnnotation@SkPaintFilterCanvas@@MEAAXAEBUSkRect@@QEBDPEAVSkData@@@Z
?onDrawArc@SkCanvas@@MEAAXAEBUSkRect@@MM_NAEBVSkPaint@@@Z
?onDrawArc@SkNWayCanvas@@MEAAXAEBUSkRect@@MM_NAEBVSkPaint@@@Z
?onDrawArc@SkNoDrawCanvas@@MEAAXAEBUSkRect@@MM_NAEBVSkPaint@@@Z
?onDrawArc@SkOverdrawCanvas@@UEAAXAEBUSkRect@@MM_NAEBVSkPaint@@@Z
?onDrawArc@SkPaintFilterCanvas@@MEAAXAEBUSkRect@@MM_NAEBVSkPaint@@@Z
?onDrawAtlas2@SkCanvas@@MEAAXPEBVSkImage@@QEBUSkRSXform@@QEBUSkRect@@QEBIHW4SkBlendMode@@AEBUSkSamplingOptions@@PEBU4@PEBVSkPaint@@@Z
?onDrawAtlas2@SkNWayCanvas@@MEAAXPEBVSkImage@@QEBUSkRSXform@@QEBUSkRect@@QEBIHW4SkBlendMode@@AEBUSkSamplingOptions@@PEBU4@PEBVSkPaint@@@Z
?onDrawAtlas2@SkNoDrawCanvas@@MEAAXPEBVSkImage@@QEBUSkRSXform@@QEBUSkRect@@QEBIHW4SkBlendMode@@AEBUSkSamplingOptions@@PEBU4@PEBVSkPaint@@@Z
?onDrawAtlas2@SkOverdrawCanvas@@UEAAXPEBVSkImage@@QEBUSkRSXform@@QEBUSkRect@@QEBIHW4SkBlendMode@@AEBUSkSamplingOptions@@PEBU4@PEBVSkPaint@@@Z
?onDrawAtlas2@SkPaintFilterCanvas@@MEAAXPEBVSkImage@@QEBUSkRSXform@@QEBUSkRect@@QEBIHW4SkBlendMode@@AEBUSkSamplingOptions@@PEBU4@PEBVSkPaint@@@Z
?onDrawBehind@?$SkCanvasVirtualEnforcer@VSkCanvas@@@@MEAAXAEBVSkPaint@@@Z
?onDrawBehind@?$SkCanvasVirtualEnforcer@VSkNWayCanvas@@@@MEAAXAEBVSkPaint@@@Z
?onDrawBehind@?$SkCanvasVirtualEnforcer@VSkNoDrawCanvas@@@@MEAAXAEBVSkPaint@@@Z
?onDrawBehind@SkCanvas@@MEAAXAEBVSkPaint@@@Z
?onDrawBehind@SkNWayCanvas@@MEAAXAEBVSkPaint@@@Z
?onDrawBehind@SkNoDrawCanvas@@MEAAXAEBVSkPaint@@@Z
?onDrawBehind@SkOverdrawCanvas@@UEAAXAEBVSkPaint@@@Z
?onDrawBehind@SkPaintFilterCanvas@@MEAAXAEBVSkPaint@@@Z
?onDrawDRRect@SkCanvas@@MEAAXAEBVSkRRect@@0AEBVSkPaint@@@Z
?onDrawDRRect@SkNWayCanvas@@MEAAXAEBVSkRRect@@0AEBVSkPaint@@@Z
?onDrawDRRect@SkNoDrawCanvas@@MEAAXAEBVSkRRect@@0AEBVSkPaint@@@Z
?onDrawDRRect@SkOverdrawCanvas@@UEAAXAEBVSkRRect@@0AEBVSkPaint@@@Z
?onDrawDRRect@SkPaintFilterCanvas@@MEAAXAEBVSkRRect@@0AEBVSkPaint@@@Z
?onDrawDrawable@SkCanvas@@MEAAXPEAVSkDrawable@@PEBVSkMatrix@@@Z
?onDrawDrawable@SkNWayCanvas@@MEAAXPEAVSkDrawable@@PEBVSkMatrix@@@Z
?onDrawDrawable@SkNoDrawCanvas@@MEAAXPEAVSkDrawable@@PEBVSkMatrix@@@Z
?onDrawDrawable@SkOverdrawCanvas@@UEAAXPEAVSkDrawable@@PEBVSkMatrix@@@Z
?onDrawDrawable@SkPaintFilterCanvas@@MEAAXPEAVSkDrawable@@PEBVSkMatrix@@@Z
?onDrawEdgeAAImageSet2@SkCanvas@@MEAAXQEBUImageSetEntry@1@HQEBUSkPoint@@QEBVSkMatrix@@AEBUSkSamplingOptions@@PEBVSkPaint@@W4SrcRectConstraint@1@@Z
?onDrawEdgeAAImageSet2@SkNWayCanvas@@MEAAXQEBUImageSetEntry@SkCanvas@@HQEBUSkPoint@@QEBVSkMatrix@@AEBUSkSamplingOptions@@PEBVSkPaint@@W4SrcRectConstraint@3@@Z
?onDrawEdgeAAImageSet2@SkNoDrawCanvas@@MEAAXQEBUImageSetEntry@SkCanvas@@HQEBUSkPoint@@QEBVSkMatrix@@AEBUSkSamplingOptions@@PEBVSkPaint@@W4SrcRectConstraint@3@@Z
?onDrawEdgeAAImageSet2@SkOverdrawCanvas@@UEAAXQEBUImageSetEntry@SkCanvas@@HQEBUSkPoint@@QEBVSkMatrix@@AEBUSkSamplingOptions@@PEBVSkPaint@@W4SrcRectConstraint@3@@Z
?onDrawEdgeAAImageSet2@SkPaintFilterCanvas@@MEAAXQEBUImageSetEntry@SkCanvas@@HQEBUSkPoint@@QEBVSkMatrix@@AEBUSkSamplingOptions@@PEBVSkPaint@@W4SrcRectConstraint@3@@Z
?onDrawEdgeAAQuad@SkCanvas@@MEAAXAEBUSkRect@@QEBUSkPoint@@W4QuadAAFlags@1@AEBU?$SkRGBA4f@$02@@W4SkBlendMode@@@Z
?onDrawEdgeAAQuad@SkNWayCanvas@@MEAAXAEBUSkRect@@QEBUSkPoint@@W4QuadAAFlags@SkCanvas@@AEBU?$SkRGBA4f@$02@@W4SkBlendMode@@@Z
?onDrawEdgeAAQuad@SkNoDrawCanvas@@MEAAXAEBUSkRect@@QEBUSkPoint@@W4QuadAAFlags@SkCanvas@@AEBU?$SkRGBA4f@$02@@W4SkBlendMode@@@Z
?onDrawEdgeAAQuad@SkOverdrawCanvas@@UEAAXAEBUSkRect@@QEBUSkPoint@@W4QuadAAFlags@SkCanvas@@AEBU?$SkRGBA4f@$02@@W4SkBlendMode@@@Z
?onDrawEdgeAAQuad@SkPaintFilterCanvas@@MEAAXAEBUSkRect@@QEBUSkPoint@@W4QuadAAFlags@SkCanvas@@AEBU?$SkRGBA4f@$02@@W4SkBlendMode@@@Z
?onDrawGlyphRunList@SkCanvas@@MEAAXAEBVGlyphRunList@sktext@@AEBVSkPaint@@@Z
?onDrawGlyphRunList@SkNWayCanvas@@MEAAXAEBVGlyphRunList@sktext@@AEBVSkPaint@@@Z
?onDrawGlyphRunList@SkOverdrawCanvas@@UEAAXAEBVGlyphRunList@sktext@@AEBVSkPaint@@@Z
?onDrawGlyphRunList@SkPaintFilterCanvas@@MEAAXAEBVGlyphRunList@sktext@@AEBVSkPaint@@@Z
?onDrawImage2@SkCanvas@@MEAAXPEBVSkImage@@MMAEBUSkSamplingOptions@@PEBVSkPaint@@@Z
?onDrawImage2@SkNWayCanvas@@MEAAXPEBVSkImage@@MMAEBUSkSamplingOptions@@PEBVSkPaint@@@Z
?onDrawImage2@SkNoDrawCanvas@@MEAAXPEBVSkImage@@MMAEBUSkSamplingOptions@@PEBVSkPaint@@@Z
?onDrawImage2@SkOverdrawCanvas@@UEAAXPEBVSkImage@@MMAEBUSkSamplingOptions@@PEBVSkPaint@@@Z
?onDrawImage2@SkPaintFilterCanvas@@MEAAXPEBVSkImage@@MMAEBUSkSamplingOptions@@PEBVSkPaint@@@Z
?onDrawImageLattice2@SkCanvas@@MEAAXPEBVSkImage@@AEBULattice@1@AEBUSkRect@@W4SkFilterMode@@PEBVSkPaint@@@Z
?onDrawImageLattice2@SkNWayCanvas@@MEAAXPEBVSkImage@@AEBULattice@SkCanvas@@AEBUSkRect@@W4SkFilterMode@@PEBVSkPaint@@@Z
?onDrawImageLattice2@SkNoDrawCanvas@@MEAAXPEBVSkImage@@AEBULattice@SkCanvas@@AEBUSkRect@@W4SkFilterMode@@PEBVSkPaint@@@Z
?onDrawImageLattice2@SkOverdrawCanvas@@UEAAXPEBVSkImage@@AEBULattice@SkCanvas@@AEBUSkRect@@W4SkFilterMode@@PEBVSkPaint@@@Z
?onDrawImageLattice2@SkPaintFilterCanvas@@MEAAXPEBVSkImage@@AEBULattice@SkCanvas@@AEBUSkRect@@W4SkFilterMode@@PEBVSkPaint@@@Z
?onDrawImageRect2@SkCanvas@@MEAAXPEBVSkImage@@AEBUSkRect@@1AEBUSkSamplingOptions@@PEBVSkPaint@@W4SrcRectConstraint@1@@Z
?onDrawImageRect2@SkNWayCanvas@@MEAAXPEBVSkImage@@AEBUSkRect@@1AEBUSkSamplingOptions@@PEBVSkPaint@@W4SrcRectConstraint@SkCanvas@@@Z
?onDrawImageRect2@SkNoDrawCanvas@@MEAAXPEBVSkImage@@AEBUSkRect@@1AEBUSkSamplingOptions@@PEBVSkPaint@@W4SrcRectConstraint@SkCanvas@@@Z
?onDrawImageRect2@SkOverdrawCanvas@@UEAAXPEBVSkImage@@AEBUSkRect@@1AEBUSkSamplingOptions@@PEBVSkPaint@@W4SrcRectConstraint@SkCanvas@@@Z
?onDrawImageRect2@SkPaintFilterCanvas@@MEAAXPEBVSkImage@@AEBUSkRect@@1AEBUSkSamplingOptions@@PEBVSkPaint@@W4SrcRectConstraint@SkCanvas@@@Z
?onDrawMesh@SkCanvas@@MEAAXAEBVSkMesh@@V?$sk_sp@VSkBlender@@@@AEBVSkPaint@@@Z
?onDrawOval@SkCanvas@@MEAAXAEBUSkRect@@AEBVSkPaint@@@Z
?onDrawOval@SkNWayCanvas@@MEAAXAEBUSkRect@@AEBVSkPaint@@@Z
?onDrawOval@SkNoDrawCanvas@@MEAAXAEBUSkRect@@AEBVSkPaint@@@Z
?onDrawOval@SkOverdrawCanvas@@UEAAXAEBUSkRect@@AEBVSkPaint@@@Z
?onDrawOval@SkPaintFilterCanvas@@MEAAXAEBUSkRect@@AEBVSkPaint@@@Z
?onDrawPaint@SkCanvas@@MEAAXAEBVSkPaint@@@Z
?onDrawPaint@SkNWayCanvas@@MEAAXAEBVSkPaint@@@Z
?onDrawPaint@SkNoDrawCanvas@@MEAAXAEBVSkPaint@@@Z
?onDrawPaint@SkOverdrawCanvas@@UEAAXAEBVSkPaint@@@Z
?onDrawPaint@SkPaintFilterCanvas@@MEAAXAEBVSkPaint@@@Z
?onDrawPatch@SkCanvas@@MEAAXQEBUSkPoint@@QEBI0W4SkBlendMode@@AEBVSkPaint@@@Z
?onDrawPatch@SkNWayCanvas@@MEAAXQEBUSkPoint@@QEBI0W4SkBlendMode@@AEBVSkPaint@@@Z
?onDrawPatch@SkNoDrawCanvas@@MEAAXQEBUSkPoint@@QEBI0W4SkBlendMode@@AEBVSkPaint@@@Z
?onDrawPatch@SkOverdrawCanvas@@UEAAXQEBUSkPoint@@QEBI0W4SkBlendMode@@AEBVSkPaint@@@Z
?onDrawPatch@SkPaintFilterCanvas@@MEAAXQEBUSkPoint@@QEBI0W4SkBlendMode@@AEBVSkPaint@@@Z
?onDrawPath@SkCanvas@@MEAAXAEBVSkPath@@AEBVSkPaint@@@Z
?onDrawPath@SkNWayCanvas@@MEAAXAEBVSkPath@@AEBVSkPaint@@@Z
?onDrawPath@SkNoDrawCanvas@@MEAAXAEBVSkPath@@AEBVSkPaint@@@Z
?onDrawPath@SkOverdrawCanvas@@UEAAXAEBVSkPath@@AEBVSkPaint@@@Z
?onDrawPath@SkPaintFilterCanvas@@MEAAXAEBVSkPath@@AEBVSkPaint@@@Z
?onDrawPicture@SkCanvas@@MEAAXPEBVSkPicture@@PEBVSkMatrix@@PEBVSkPaint@@@Z
?onDrawPicture@SkNWayCanvas@@MEAAXPEBVSkPicture@@PEBVSkMatrix@@PEBVSkPaint@@@Z
?onDrawPicture@SkNoDrawCanvas@@MEAAXPEBVSkPicture@@PEBVSkMatrix@@PEBVSkPaint@@@Z
?onDrawPicture@SkOverdrawCanvas@@UEAAXPEBVSkPicture@@PEBVSkMatrix@@PEBVSkPaint@@@Z
?onDrawPicture@SkPaintFilterCanvas@@MEAAXPEBVSkPicture@@PEBVSkMatrix@@PEBVSkPaint@@@Z
?onDrawPoints@SkCanvas@@MEAAXW4PointMode@1@_KQEBUSkPoint@@AEBVSkPaint@@@Z
?onDrawPoints@SkNWayCanvas@@MEAAXW4PointMode@SkCanvas@@_KQEBUSkPoint@@AEBVSkPaint@@@Z
?onDrawPoints@SkNoDrawCanvas@@MEAAXW4PointMode@SkCanvas@@_KQEBUSkPoint@@AEBVSkPaint@@@Z
?onDrawPoints@SkOverdrawCanvas@@UEAAXW4PointMode@SkCanvas@@_KQEBUSkPoint@@AEBVSkPaint@@@Z
?onDrawPoints@SkPaintFilterCanvas@@MEAAXW4PointMode@SkCanvas@@_KQEBUSkPoint@@AEBVSkPaint@@@Z
?onDrawRRect@SkCanvas@@MEAAXAEBVSkRRect@@AEBVSkPaint@@@Z
?onDrawRRect@SkNWayCanvas@@MEAAXAEBVSkRRect@@AEBVSkPaint@@@Z
?onDrawRRect@SkNoDrawCanvas@@MEAAXAEBVSkRRect@@AEBVSkPaint@@@Z
?onDrawRRect@SkOverdrawCanvas@@UEAAXAEBVSkRRect@@AEBVSkPaint@@@Z
?onDrawRRect@SkPaintFilterCanvas@@MEAAXAEBVSkRRect@@AEBVSkPaint@@@Z
?onDrawRect@SkCanvas@@MEAAXAEBUSkRect@@AEBVSkPaint@@@Z
?onDrawRect@SkNWayCanvas@@MEAAXAEBUSkRect@@AEBVSkPaint@@@Z
?onDrawRect@SkNoDrawCanvas@@MEAAXAEBUSkRect@@AEBVSkPaint@@@Z
?onDrawRect@SkOverdrawCanvas@@UEAAXAEBUSkRect@@AEBVSkPaint@@@Z
?onDrawRect@SkPaintFilterCanvas@@MEAAXAEBUSkRect@@AEBVSkPaint@@@Z
?onDrawRegion@SkCanvas@@MEAAXAEBVSkRegion@@AEBVSkPaint@@@Z
?onDrawRegion@SkNWayCanvas@@MEAAXAEBVSkRegion@@AEBVSkPaint@@@Z
?onDrawRegion@SkNoDrawCanvas@@MEAAXAEBVSkRegion@@AEBVSkPaint@@@Z
?onDrawRegion@SkOverdrawCanvas@@UEAAXAEBVSkRegion@@AEBVSkPaint@@@Z
?onDrawRegion@SkPaintFilterCanvas@@MEAAXAEBVSkRegion@@AEBVSkPaint@@@Z
?onDrawShadowRec@SkCanvas@@MEAAXAEBVSkPath@@AEBUSkDrawShadowRec@@@Z
?onDrawShadowRec@SkNWayCanvas@@MEAAXAEBVSkPath@@AEBUSkDrawShadowRec@@@Z
?onDrawShadowRec@SkNoDrawCanvas@@MEAAXAEBVSkPath@@AEBUSkDrawShadowRec@@@Z
?onDrawShadowRec@SkOverdrawCanvas@@UEAAXAEBVSkPath@@AEBUSkDrawShadowRec@@@Z
?onDrawShadowRec@SkPaintFilterCanvas@@MEAAXAEBVSkPath@@AEBUSkDrawShadowRec@@@Z
?onDrawSlug@SkCanvas@@MEAAXPEBVSlug@gpu@sktext@@AEBVSkPaint@@@Z
?onDrawSlug@SkNWayCanvas@@MEAAXPEBVSlug@gpu@sktext@@AEBVSkPaint@@@Z
?onDrawTextBlob@SkCanvas@@MEAAXPEBVSkTextBlob@@MMAEBVSkPaint@@@Z
?onDrawTextBlob@SkNWayCanvas@@MEAAXPEBVSkTextBlob@@MMAEBVSkPaint@@@Z
?onDrawTextBlob@SkNoDrawCanvas@@MEAAXPEBVSkTextBlob@@MMAEBVSkPaint@@@Z
?onDrawTextBlob@SkOverdrawCanvas@@UEAAXPEBVSkTextBlob@@MMAEBVSkPaint@@@Z
?onDrawTextBlob@SkPaintFilterCanvas@@MEAAXPEBVSkTextBlob@@MMAEBVSkPaint@@@Z
?onDrawVerticesObject@SkCanvas@@MEAAXPEBVSkVertices@@W4SkBlendMode@@AEBVSkPaint@@@Z
?onDrawVerticesObject@SkNWayCanvas@@MEAAXPEBVSkVertices@@W4SkBlendMode@@AEBVSkPaint@@@Z
?onDrawVerticesObject@SkNoDrawCanvas@@MEAAXPEBVSkVertices@@W4SkBlendMode@@AEBVSkPaint@@@Z
?onDrawVerticesObject@SkOverdrawCanvas@@UEAAXPEBVSkVertices@@W4SkBlendMode@@AEBVSkPaint@@@Z
?onDrawVerticesObject@SkPaintFilterCanvas@@MEAAXPEBVSkVertices@@W4SkBlendMode@@AEBVSkPaint@@@Z
?onDuplicate@SkFILEStream@@EEBAPEAVSkStreamAsset@@XZ
?onDuplicate@SkMemoryStream@@EEBAPEAV1@XZ
?onDuplicate@SkStream@@EEBAPEAV1@XZ
?onFork@SkFILEStream@@EEBAPEAVSkStreamAsset@@XZ
?onFork@SkMemoryStream@@EEBAPEAV1@XZ
?onFork@SkStream@@EEBAPEAV1@XZ
?onGenerateTexture@GrExternalTextureGenerator@@UEAA?AVGrSurfaceProxyView@@PEAVGrRecordingContext@@AEBUSkImageInfo@@W4Mipmapped@skgpu@@W4GrImageTexGenPolicy@@@Z
?onGetAtlasManager@GrDirectContext@@IEAAPEAVGrAtlasManager@@XZ
?onGetBounds@SkAnimatedImage@@MEAA?AUSkRect@@XZ
?onGetCTFontRef@SkTypeface@@MEBAPEAXXZ
?onGetFamilyName@SkOrderedFontMgr@@MEBAXHPEAVSkString@@@Z
?onGetFixedPitch@SkTypeface@@MEBA_NXZ
?onGetFontStyle@SkTypeface@@MEBA?AVSkFontStyle@@XZ
?onGetFrameCount@SkCodec@@MEAAHXZ
?onGetFrameInfo@SkCodec@@MEBA_NHPEAUFrameInfo@1@@Z
?onGetGainmapCodec@SkCodec@@MEAA_NPEAUSkGainmapInfo@@PEAV?$unique_ptr@VSkCodec@@U?$default_delete@VSkCodec@@@std@@@std@@@Z
?onGetGainmapInfo@SkCodec@@MEAA_NPEAUSkGainmapInfo@@@Z
?onGetGainmapInfo@SkCodec@@MEAA_NPEAUSkGainmapInfo@@PEAV?$unique_ptr@VSkStream@@U?$default_delete@VSkStream@@@std@@@std@@@Z
?onGetKerningPairAdjustments@SkTypeface@@MEBA_NV?$SkSpan@$$CBG@@V?$SkSpan@H@@@Z
?onGetPixels@SkImageGenerator@@MEAA_NAEBUSkImageInfo@@PEAX_KAEBUOptions@1@@Z
?onGetProps@SkCanvas@@MEBA_NPEAVSkSurfaceProps@@_N@Z
?onGetProps@SkPaintFilterCanvas@@MEBA_NPEAVSkSurfaceProps@@_N@Z
?onGetRepetitionCount@SkCodec@@MEAAHXZ
?onGetResourceName@SkTypeface@@MEBAHPEAVSkString@@@Z
?onGetScaledDimensions@SkCodec@@MEBA?AUSkISize@@M@Z
?onGetScanlineOrder@SkCodec@@MEBA?AW4SkScanlineOrder@1@XZ
?onGetScanlines@SkCodec@@EEAAHPEAXH_K@Z
?onGetSmallPathAtlasMgr@GrDirectContext@@IEAAPEAVSmallPathAtlasMgr@ganesh@skgpu@@XZ
?onGetValidSubset@SkCodec@@MEBA_NPEAUSkIRect@@@Z
?onGetYUVAPlanes@SkCodec@@MEAA?AW4Result@1@AEBVSkYUVAPixmaps@@@Z
?onGetYUVAPlanes@SkImageGenerator@@MEAA_NAEBVSkYUVAPixmaps@@@Z
?onImageInfo@SkCanvas@@MEBA?AUSkImageInfo@@XZ
?onImageInfo@SkPaintFilterCanvas@@MEBA?AUSkImageInfo@@XZ
?onIncrementalDecode@SkCodec@@EEAA?AW4Result@1@PEAH@Z
?onIsAnimated@SkCodec@@MEAA?AW4IsAnimated@1@XZ
?onIsProtected@SkImageGenerator@@MEBA_NXZ
?onIsValid@SkImageGenerator@@MEBA_NPEAVSkRecorder@@@Z
?onLegacyMakeTypeface@SkOrderedFontMgr@@MEBA?AV?$sk_sp@VSkTypeface@@@@QEBDVSkFontStyle@@@Z
?onMakeFromData@SkOrderedFontMgr@@MEBA?AV?$sk_sp@VSkTypeface@@@@V?$sk_sp@VSkData@@@@H@Z
?onMakeFromFile@SkOrderedFontMgr@@MEBA?AV?$sk_sp@VSkTypeface@@@@QEBDH@Z
?onMakeFromStreamArgs@SkOrderedFontMgr@@MEBA?AV?$sk_sp@VSkTypeface@@@@V?$unique_ptr@VSkStreamAsset@@U?$default_delete@VSkStreamAsset@@@std@@@std@@AEBUSkFontArguments@@@Z
?onMakeFromStreamIndex@SkOrderedFontMgr@@MEBA?AV?$sk_sp@VSkTypeface@@@@V?$unique_ptr@VSkStreamAsset@@U?$default_delete@VSkStreamAsset@@@std@@@std@@H@Z
?onMakePictureSnapshot@SkDrawable@@MEAA?AV?$sk_sp@VSkPicture@@@@XZ
?onMatchFamily@SkOrderedFontMgr@@MEBA?AV?$sk_sp@VSkFontStyleSet@@@@QEBD@Z
?onMatchFamilyStyle@SkOrderedFontMgr@@MEBA?AV?$sk_sp@VSkTypeface@@@@QEBDAEBVSkFontStyle@@@Z
?onMatchFamilyStyleCharacter@SkOrderedFontMgr@@MEBA?AV?$sk_sp@VSkTypeface@@@@QEBDAEBVSkFontStyle@@QEAPEBDHH@Z
?onNewSurface@SkCanvas@@MEAA?AV?$sk_sp@VSkSurface@@@@AEBUSkImageInfo@@AEBVSkSurfaceProps@@@Z
?onNewSurface@SkPaintFilterCanvas@@MEAA?AV?$sk_sp@VSkSurface@@@@AEBUSkImageInfo@@AEBVSkSurfaceProps@@@Z
?onOpenExistingStream@SkTypeface@@MEBA?AV?$unique_ptr@VSkStreamAsset@@U?$default_delete@VSkStreamAsset@@@std@@@std@@PEAH@Z
?onOutputScanline@SkCodec@@MEBAHH@Z
?onPeekPixels@SkCanvas@@MEAA_NPEAVSkPixmap@@@Z
?onPeekPixels@SkPaintFilterCanvas@@MEAA_NPEAVSkPixmap@@@Z
?onQueryYUVAInfo@SkCodec@@MEBA_NAEBVSupportedDataTypes@SkYUVAPixmapInfo@@PEAV3@@Z
?onQueryYUVAInfo@SkImageGenerator@@MEBA_NAEBVSupportedDataTypes@SkYUVAPixmapInfo@@PEAV3@@Z
?onRefEncodedData@SkImageGenerator@@MEAA?AV?$sk_sp@VSkData@@@@XZ
?onResetClip@SkCanvas@@MEAAXXZ
?onResetClip@SkNWayCanvas@@MEAAXXZ
?onRewind@SkCodec@@MEAA_NXZ
?onSkipScanlines@SkCodec@@EEAA_NH@Z
?onSnapGpuDrawHandler@SkDrawable@@MEAA?AV?$unique_ptr@VGpuDrawHandler@SkDrawable@@U?$default_delete@VGpuDrawHandler@SkDrawable@@@std@@@std@@W4GrBackendApi@@AEBVSkMatrix@@@Z
?onSnapGpuDrawHandler@SkDrawable@@MEAA?AV?$unique_ptr@VGpuDrawHandler@SkDrawable@@U?$default_delete@VGpuDrawHandler@SkDrawable@@@std@@@std@@W4GrBackendApi@@AEBVSkMatrix@@AEBUSkIRect@@AEBUSkImageInfo@@@Z
?onStartIncrementalDecode@SkCodec@@EEAA?AW4Result@1@AEBUSkImageInfo@@PEAX_KAEBUOptions@1@@Z
?onStartScanlineDecode@SkCodec@@EEAA?AW4Result@1@AEBUSkImageInfo@@AEBUOptions@1@@Z
?onSurfaceDelete@SkCanvas@@EEAAXXZ
?only_axis_aligned_saveBehind@SkCanvas@@AEAAHPEBUSkRect@@@Z
?oomed@GrDirectContext@@QEAA_NXZ
?op@SkRegion@@QEAA_NAEBUSkIRect@@AEBV1@W4Op@1@@Z
?op@SkRegion@@QEAA_NAEBUSkIRect@@W4Op@1@@Z
?op@SkRegion@@QEAA_NAEBV1@0W4Op@1@@Z
?op@SkRegion@@QEAA_NAEBV1@AEBUSkIRect@@W4Op@1@@Z
?op@SkRegion@@QEAA_NAEBV1@W4Op@1@@Z
?openExistingStream@SkTypeface@@QEBA?AV?$unique_ptr@VSkStreamAsset@@U?$default_delete@VSkStreamAsset@@@std@@@std@@PEAH@Z
?openStream@SkTypeface@@QEBA?AV?$unique_ptr@VSkStreamAsset@@U?$default_delete@VSkStreamAsset@@@std@@@std@@PEAH@Z
?optimize@Compiler@SkSL@@AEAA_NAEAUProgram@2@@Z
?optimizeModuleAfterLoading@Compiler@SkSL@@AEAA_NW4ProgramKind@2@AEAUModule@2@@Z
?optimizeModuleBeforeMinifying@Compiler@SkSL@@QEAA_NW4ProgramKind@2@AEAUModule@2@_N@Z
?options@SkCodec@@IEBAAEBUOptions@1@XZ
?orTypeMask@SkMatrix@@AEAAXH@Z
?origin@GrSurfaceCharacterization@@QEBA?AW4GrSurfaceOrigin@@XZ
?origin@GrTextureGenerator@@UEBA?AW4GrSurfaceOrigin@@XZ
?origin@SkYUVAInfo@@QEBA?AW4SkEncodedOrigin@@XZ
?originMatrix@SkYUVAInfo@@QEBA?AVSkMatrix@@XZ
?osSignal@SkSemaphore@@AEAAXH@Z
?osWait@SkSemaphore@@AEAAXXZ
?outputScanline@SkCodec@@QEBAHH@Z
?outset@SkIRect@@QEAAXHH@Z
?outset@SkRRect@@QEAAXMM@Z
?outset@SkRRect@@QEBAXMMPEAV1@@Z
?outset@SkRect@@QEAAXMM@Z
?overdrawPaint@SkOverdrawCanvas@@AEAA?AVSkPaint@@AEBV2@@Z
?ownsStorage@SkYUVAPixmaps@@QEBA_NXZ
?padToAlign4@SkDynamicMemoryWStream@@QEAAXXZ
?parse@ContentLightLevelInformation@skhdr@@QEAA_NPEBVSkData@@@Z
?parse@MasteringDisplayColorVolume@skhdr@@QEAA_NPEBVSkData@@@Z
?parsePngChunk@ContentLightLevelInformation@skhdr@@QEAA_NPEBVSkData@@@Z
?partialReplay@SkPictureRecorder@@AEBAXPEAVSkCanvas@@@Z
?peek@RawIter@SkPath@@QEBA?AW4Verb@2@XZ
?peek@SkMemoryStream@@UEBA_KPEAX_K@Z
?peek@SkStream@@UEBA_KPEAX_K@Z
?peekNextVerb@SkPathIter@@QEBA?AV?$optional@W4SkPathVerb@@@std@@XZ
?peekPixels@SkBitmap@@QEBA_NPEAVSkPixmap@@@Z
?peekPixels@SkCanvas@@QEAA_NPEAVSkPixmap@@@Z
?peekPixels@SkImage@@QEBA_NPEAVSkPixmap@@@Z
?peekPixels@SkSurface@@QEAA_NPEAVSkPixmap@@@Z
?performDeferredCleanup@GrDirectContext@@QEAAXV?$duration@_JU?$ratio@$00$0DOI@@std@@@chrono@std@@W4GrPurgeResourceOptions@@@Z
?pixelGeometry@SkSurfaceProps@@QEBA?AW4SkPixelGeometry@@XZ
?pixelRef@SkBitmap@@QEBAPEAVSkPixelRef@@XZ
?pixelRefOrigin@SkBitmap@@QEBA?AUSkIPoint@@XZ
?pixels@SkPixelRef@@QEBAPEAXXZ
?pixmap@SkBitmap@@QEBAAEBVSkPixmap@@XZ
?pixmapsInfo@SkYUVAPixmaps@@QEBA?AVSkYUVAPixmapInfo@@XZ
?plane@SkYUVAPixmaps@@QEBAAEBVSkPixmap@@H@Z
?planeConfig@SkYUVAInfo@@QEBA?AW4PlaneConfig@1@XZ
?planeDimensions@SkYUVAInfo@@QEBAHQEAUSkISize@@@Z
?planeFormat@GrYUVABackendTextureInfo@@QEBAAEBVGrBackendFormat@@H@Z
?planeInfo@SkYUVAPixmapInfo@@QEBAAEBUSkImageInfo@@H@Z
?planeSubsamplingFactors@SkYUVAInfo@@QEBA?AV?$tuple@HH@std@@H@Z
?planes@SkYUVAPixmaps@@QEBAAEBV?$array@VSkPixmap@@$03@std@@XZ
?pointSpan@SkPathRef@@QEBA?AV?$SkSpan@$$CBUSkPoint@@@@XZ
?points@SkPath@@QEBA?AV?$SkSpan@$$CBUSkPoint@@@@XZ
?points@SkPathBuilder@@QEBA?AV?$SkSpan@$$CBUSkPoint@@@@XZ
?points@SkPathRef@@QEBAPEBUSkPoint@@XZ
?points@SkTextBlobRunIterator@@QEBAPEBUSkPoint@@XZ
?pointsEnd@SkPathRef@@QEBAPEBUSkPoint@@XZ
?polylineTo@SkPathBuilder@@QEAAAEAV1@V?$SkSpan@$$CBUSkPoint@@@@@Z
?pop_back@SkDeque@@QEAAXXZ
?pop_back@SkTDStorage@@QEAAXXZ
?pop_front@SkDeque@@QEAAXXZ
?pos@SkTextBlobRunIterator@@QEBAPEBMXZ
?positioning@SkTextBlobRunIterator@@QEBA?AW4GlyphPositioning@1@XZ
?positions@Builder@SkVertices@@QEAAPEAUSkPoint@@XZ
?postConcat@SkColorMatrix@@QEAAXAEBV1@@Z
?postConcat@SkM44@@QEAAAEAV1@AEBV1@@Z
?postConcat@SkMatrix@@QEAAAEAV1@AEBV1@@Z
?postIDiv@SkMatrix@@AEAA_NHH@Z
?postRotate@SkMatrix@@QEAAAEAV1@M@Z
?postRotate@SkMatrix@@QEAAAEAV1@MMM@Z
?postScale@SkMatrix@@QEAAAEAV1@MM@Z
?postScale@SkMatrix@@QEAAAEAV1@MMMM@Z
?postSkew@SkMatrix@@QEAAAEAV1@MM@Z
?postSkew@SkMatrix@@QEAAAEAV1@MMMM@Z
?postTranslate@SkColorMatrix@@QEAAXMMMM@Z
?postTranslate@SkM44@@QEAAAEAV1@MMM@Z
?postTranslate@SkMatrix@@QEAAAEAV1@MM@Z
?preConcat@SkColorMatrix@@QEAAXAEBV1@@Z
?preConcat@SkM44@@QEAAAEAV1@AEBV1@@Z
?preConcat@SkM44@@QEAAAEAV1@AEBVSkMatrix@@@Z
?preConcat@SkMatrix@@QEAAAEAV1@AEBV1@@Z
?preRotate@SkMatrix@@QEAAAEAV1@M@Z
?preRotate@SkMatrix@@QEAAAEAV1@MMM@Z
?preScale@SkM44@@QEAAAEAV1@MM@Z
?preScale@SkM44@@QEAAAEAV1@MMM@Z
?preScale@SkMatrix@@QEAAAEAV1@MM@Z
?preScale@SkMatrix@@QEAAAEAV1@MMMM@Z
?preSkew@SkMatrix@@QEAAAEAV1@MM@Z
?preSkew@SkMatrix@@QEAAAEAV1@MMMM@Z
?preTranslate@SkM44@@QEAAAEAV1@MMM@Z
?preTranslate@SkMatrix@@QEAAAEAV1@MM@Z
?precompileShader@GrDirectContext@@QEAA_NAEBVSkData@@0@Z
?predrawNotify@SkCanvas@@AEAA_NPEBUSkRect@@PEBVSkPaint@@V?$SkEnumBitMask@W4PredrawFlags@SkCanvas@@@@@Z
?predrawNotify@SkCanvas@@AEAA_N_N@Z
?prepend@SkString@@QEAAXAEBV1@@Z
?prepend@SkString@@QEAAXQEBD@Z
?prepend@SkString@@QEAAXQEBD_K@Z
?prepend@SkString@@QEAAXV?$basic_string_view@DU?$char_traits@D@std@@@std@@@Z
?prepend@SkTDStorage@@QEAAPEAXXZ
?prependHex@SkString@@QEAAXIH@Z
?prependS32@SkString@@QEAAXH@Z
?prependS64@SkString@@QEAAXHH@Z
?prependScalar@SkString@@QEAAXM@Z
?prependToAndReset@SkDynamicMemoryWStream@@QEAAXPEAV1@@Z
?prependUnichar@SkString@@QEAAXH@Z
?prependVAList@SkString@@QEAAXQEBDPEAD@Z
?prependf@SkString@@QEAAXQEBDZZ
?preservesAxisAlignment@SkMatrix@@QEBA_NXZ
?preservesRightAngles@SkMatrix@@QEBA_NM@Z
?printVAList@SkString@@QEAAXQEBDPEAD@Z
?printf@SkString@@QEAAXQEBDZZ
?priv@GrContextThreadSafeProxy@@QEAA?AVGrContextThreadSafeProxyPriv@@XZ
?priv@GrContextThreadSafeProxy@@QEBA?BVGrContextThreadSafeProxyPriv@@XZ
?priv@GrDirectContext@@QEAA?AVGrDirectContextPriv@@XZ
?priv@GrDirectContext@@QEBA?BVGrDirectContextPriv@@XZ
?priv@SkVertices@@QEAA?AVSkVerticesPriv@@XZ
?priv@SkVertices@@QEBA?BVSkVerticesPriv@@XZ
?privateReverseAddPath@SkPathBuilder@@AEAAAEAV1@AEBVSkPath@@@Z
?privateReversePathTo@SkPathBuilder@@AEAAAEAV1@AEBVSkPath@@@Z
?private_draw_shadow_rec@SkCanvas@@QEAAXAEBVSkPath@@AEBUSkDrawShadowRec@@@Z
?props@SkSurface@@QEBAAEBVSkSurfaceProps@@XZ
?proxy@SkPaintFilterCanvas@@AEBAPEAVSkCanvas@@XZ
?ptr@SkV2@@QEAAPEAMXZ
?ptr@SkV2@@QEBAPEBMXZ
?ptr@SkV3@@QEAAPEAMXZ
?ptr@SkV3@@QEBAPEBMXZ
?ptr@SkV4@@QEAAPEAMXZ
?ptr@SkV4@@QEBAPEBMXZ
?purgeResourcesNotUsedInMs@GrDirectContext@@QEAAXV?$duration@_JU?$ratio@$00$0DOI@@std@@@chrono@std@@@Z
?purgeUnlockedResources@GrDirectContext@@QEAAXW4GrPurgeResourceOptions@@@Z
?purgeUnlockedResources@GrDirectContext@@QEAAX_K_N@Z
?push_back@SkDeque@@QEAAPEAXXZ
?push_front@SkDeque@@QEAAPEAXXZ
?quadTo@SkPathBuilder@@QEAAAEAV1@MMMM@Z
?quadTo@SkPathBuilder@@QEAAAEAV1@QEBUSkPoint@@@Z
?quadTo@SkPathBuilder@@QEAAAEAV1@USkPoint@@0@Z
?queryYUVAInfo@SkCodec@@QEBA_NAEBVSupportedDataTypes@SkYUVAPixmapInfo@@PEAV3@@Z
?queryYUVAInfo@SkImageGenerator@@QEBA_NAEBVSupportedDataTypes@SkYUVAPixmapInfo@@PEAV3@@Z
?quickContains@SkRegion@@QEBA_NAEBUSkIRect@@@Z
?quickReject@SkCanvas@@QEBA_NAEBUSkRect@@@Z
?quickReject@SkCanvas@@QEBA_NAEBVSkPath@@@Z
?quickReject@SkRegion@@QEBA_NAEBUSkIRect@@@Z
?quickReject@SkRegion@@QEBA_NAEBV1@@Z
?rArcTo@SkPathBuilder@@QEAAAEAV1@USkPoint@@MW4ArcSize@1@W4SkPathDirection@@0@Z
?rConicTo@SkPathBuilder@@QEAAAEAV1@MMMMM@Z
?rConicTo@SkPathBuilder@@QEAAAEAV1@USkPoint@@0M@Z
?rCubicTo@SkPathBuilder@@QEAAAEAV1@MMMMMM@Z
?rCubicTo@SkPathBuilder@@QEAAAEAV1@USkPoint@@00@Z
?rLineTo@SkPathBuilder@@QEAAAEAV1@MM@Z
?rLineTo@SkPathBuilder@@QEAAAEAV1@USkPoint@@@Z
?rMoveTo@SkPathBuilder@@QEAAAEAV1@MM@Z
?rMoveTo@SkPathBuilder@@QEAAAEAV1@USkPoint@@@Z
?rQuadTo@SkPathBuilder@@QEAAAEAV1@MMMM@Z
?rQuadTo@SkPathBuilder@@QEAAAEAV1@USkPoint@@0@Z
?radii@SkRRect@@QEBA?AUSkPoint@@W4Corner@1@@Z
?radii@SkRRect@@QEBA?AV?$SkSpan@$$CBUSkPoint@@@@XZ
?raw@SkPath@@AEBA?AV?$optional@USkPathRaw@@@std@@W4SkResolveConvexity@@@Z
?rc@SkM44@@QEBAMHH@Z
?rc@SkMatrix@@QEBAMHH@Z
?read@SkDynamicMemoryWStream@@QEAA_NPEAX_K1@Z
?read@SkFILEStream@@UEAA_KPEAX_K@Z
?read@SkMemoryStream@@UEAA_KPEAX_K@Z
?readAsRRect@SkPath@@AEAA_KPEBX_K@Z
?readBool@SkStream@@QEAA_NPEA_N@Z
?readFromMemory@SkMatrix@@AEAA_KPEBX_K@Z
?readFromMemory@SkRRect@@QEAA_KPEBX_K@Z
?readFromMemory@SkRegion@@QEAA_KPEBX_K@Z
?readPackedUInt@SkStream@@QEAA_NPEA_K@Z
?readPixels@SkBitmap@@QEBA_NAEBUSkImageInfo@@PEAX_KHH@Z
?readPixels@SkBitmap@@QEBA_NAEBVSkPixmap@@@Z
?readPixels@SkBitmap@@QEBA_NAEBVSkPixmap@@HH@Z
?readPixels@SkCanvas@@QEAA_NAEBUSkImageInfo@@PEAX_KHH@Z
?readPixels@SkCanvas@@QEAA_NAEBVSkBitmap@@HH@Z
?readPixels@SkCanvas@@QEAA_NAEBVSkPixmap@@HH@Z
?readPixels@SkImage@@QEBA_NAEBUSkImageInfo@@PEAX_KHHW4CachingHint@1@@Z
?readPixels@SkImage@@QEBA_NAEBVSkPixmap@@HHW4CachingHint@1@@Z
?readPixels@SkImage@@QEBA_NPEAVGrDirectContext@@AEBUSkImageInfo@@PEAX_KHHW4CachingHint@1@@Z
?readPixels@SkImage@@QEBA_NPEAVGrDirectContext@@AEBVSkPixmap@@HHW4CachingHint@1@@Z
?readPixels@SkPixmap@@QEBA_NAEBUSkImageInfo@@PEAX_K@Z
?readPixels@SkPixmap@@QEBA_NAEBUSkImageInfo@@PEAX_KHH@Z
?readPixels@SkPixmap@@QEBA_NAEBV1@@Z
?readPixels@SkPixmap@@QEBA_NAEBV1@HH@Z
?readPixels@SkSurface@@QEAA_NAEBUSkImageInfo@@PEAX_KHH@Z
?readPixels@SkSurface@@QEAA_NAEBVSkBitmap@@HH@Z
?readPixels@SkSurface@@QEAA_NAEBVSkPixmap@@HH@Z
?readS16@SkStream@@QEAA_NPEAF@Z
?readS32@SkStream@@QEAA_NPEAH@Z
?readS64@SkStream@@QEAA_NPEA_J@Z
?readS8@SkStream@@QEAA_NPEAC@Z
?readScalar@SkStream@@QEAA_NPEAM@Z
?readStrikeData@SkStrikeClient@@QEAA_NPEDX_K@Z
?readTableTags@SkTypeface@@QEBAHV?$SkSpan@I@@@Z
?readU16@SkStream@@QEAA_NPEAG@Z
?readU32@SkStream@@QEAA_NPEAI@Z
?readU64@SkStream@@QEAA_NPEA_K@Z
?readU8@SkStream@@QEAA_NPEAE@Z
?readyToDraw@SkBitmap@@QEBA_NXZ
?recorder@SkCanvas@@UEBAPEAVRecorder@graphite@skgpu@@XZ
?recorder@SkSurface@@QEBAPEAVRecorder@graphite@skgpu@@XZ
?recordingContext@SkCanvas@@UEBAPEAVGrRecordingContext@@XZ
?recordingContext@SkPaintFilterCanvas@@UEBAPEAVGrRecordingContext@@XZ
?recordingContext@SkSurface@@QEBAPEAVGrRecordingContext@@XZ
?rect@Cliperator@SkRegion@@QEBAAEBUSkIRect@@XZ
?rect@Iterator@SkRegion@@QEBAAEBUSkIRect@@XZ
?rect@SkRRect@@QEBAAEBUSkRect@@XZ
?rectStaysRect@SkMatrix@@QEBA_NXZ
?rectStaysRect@SkRSXform@@QEBA_NXZ
?redTable@SkColorTable@@QEBAPEBEXZ
?ref@?$SkNVRefCnt@VGrContextThreadSafeProxy@@@@QEBAXXZ
?ref@?$SkNVRefCnt@VGrPromiseImageTexture@@@@QEBAXXZ
?ref@?$SkNVRefCnt@VSkColorSpace@@@@QEBAXXZ
?ref@?$SkNVRefCnt@VSkData@@@@QEBAXXZ
?ref@?$SkNVRefCnt@VSkMeshSpecification@@@@QEBAXXZ
?ref@?$SkNVRefCnt@VSkPathRef@@@@QEBAXXZ
?ref@?$SkNVRefCnt@VSkTextBlob@@@@QEBAXXZ
?ref@?$SkNVRefCnt@VSkVertices@@@@QEBAXXZ
?ref@SkRefCntBase@@QEBAXXZ
?refBlender@SkPaint@@QEBA?AV?$sk_sp@VSkBlender@@@@XZ
?refCntGreaterThan@?$SkNVRefCnt@VGrContextThreadSafeProxy@@@@QEBA_NH@Z
?refCntGreaterThan@?$SkNVRefCnt@VGrPromiseImageTexture@@@@QEBA_NH@Z
?refCntGreaterThan@?$SkNVRefCnt@VSkColorSpace@@@@QEBA_NH@Z
?refCntGreaterThan@?$SkNVRefCnt@VSkData@@@@QEBA_NH@Z
?refCntGreaterThan@?$SkNVRefCnt@VSkMeshSpecification@@@@QEBA_NH@Z
?refCntGreaterThan@?$SkNVRefCnt@VSkPathRef@@@@QEBA_NH@Z
?refCntGreaterThan@?$SkNVRefCnt@VSkTextBlob@@@@QEBA_NH@Z
?refCntGreaterThan@?$SkNVRefCnt@VSkVertices@@@@QEBA_NH@Z
?refColorFilter@SkPaint@@QEBA?AV?$sk_sp@VSkColorFilter@@@@XZ
?refColorSpace@GrSurfaceCharacterization@@QEBA?AV?$sk_sp@VSkColorSpace@@@@XZ
?refColorSpace@SkBitmap@@QEBA?AV?$sk_sp@VSkColorSpace@@@@XZ
?refColorSpace@SkColorInfo@@QEBA?AV?$sk_sp@VSkColorSpace@@@@XZ
?refColorSpace@SkImage@@QEBA?AV?$sk_sp@VSkColorSpace@@@@XZ
?refColorSpace@SkImageInfo@@QEBA?AV?$sk_sp@VSkColorSpace@@@@XZ
?refColorSpace@SkPixmap@@QEBA?AV?$sk_sp@VSkColorSpace@@@@XZ
?refContextInfo@GrSurfaceCharacterization@@QEBA?AV?$sk_sp@VGrContextThreadSafeProxy@@@@XZ
?refEncodedData@SkImage@@QEBA?AV?$sk_sp@VSkData@@@@XZ
?refEncodedData@SkImageGenerator@@QEAA?AV?$sk_sp@$$CBVSkData@@@@XZ
?refImageFilter@SkPaint@@QEBA?AV?$sk_sp@VSkImageFilter@@@@XZ
?refIndexBuffer@SkMesh@@QEBA?AV?$sk_sp@VIndexBuffer@SkMesh@@@@XZ
?refMaskFilter@SkPaint@@QEBA?AV?$sk_sp@VSkMaskFilter@@@@XZ
?refMe@SkImageFilter@@IEBA?AV?$sk_sp@VSkImageFilter@@@@XZ
?refPathEffect@SkPaint@@QEBA?AV?$sk_sp@VSkPathEffect@@@@XZ
?refShader@SkPaint@@QEBA?AV?$sk_sp@VSkShader@@@@XZ
?refSpec@SkMesh@@QEBA?AV?$sk_sp@VSkMeshSpecification@@@@XZ
?refTypeface@SkFont@@QEBA?AV?$sk_sp@VSkTypeface@@@@XZ
?refUniforms@SkMesh@@QEBA?AV?$sk_sp@$$CBVSkData@@@@XZ
?refVertexBuffer@SkMesh@@QEBA?AV?$sk_sp@VVertexBuffer@SkMesh@@@@XZ
?reinterpretColorSpace@SkImage@@QEBA?AV?$sk_sp@VSkImage@@@@V?$sk_sp@VSkColorSpace@@@@@Z
?releaseProgram@Compiler@SkSL@@AEAA?AV?$unique_ptr@UProgram@SkSL@@U?$default_delete@UProgram@SkSL@@@std@@@std@@V?$unique_ptr@V?$basic_string@DU?$char_traits@D@std@@V?$allocator@D@2@@std@@U?$default_delete@V?$basic_string@DU?$char_traits@D@std@@V?$allocator@D@2@@std@@@2@@4@V?$vector@V?$unique_ptr@VProgramElement@SkSL@@U?$default_delete@VProgramElement@SkSL@@@std@@@std@@V?$allocator@V?$unique_ptr@VProgramElement@SkSL@@U?$default_delete@VProgramElement@SkSL@@@std@@@std@@@2@@4@@Z
?releaseResourcesAndAbandonContext@GrDirectContext@@QEAAXXZ
?remove@SkString@@QEAAX_K0@Z
?removeAll@SkNWayCanvas@@UEAAXXZ
?removeCanvas@SkNWayCanvas@@UEAAXPEAVSkCanvas@@@Z
?removeShuffle@SkTDStorage@@QEAAXH@Z
?reserve@SkTDStorage@@QEAAXH@Z
?reserve@SkTextBlobBuilder@@AEAAX_K@Z
?reset@Iter@SkOSFile@@QEAAXQEBD0@Z
?reset@Iterator@SkRegion@@QEAAXAEBV2@@Z
?reset@SkAnimatedImage@@QEAAXXZ
?reset@SkBitmap@@QEAAXXZ
?reset@SkContourMeasureIter@@QEAAXAEBVSkPath@@_NM@Z
?reset@SkDynamicMemoryWStream@@QEAAXXZ
?reset@SkImageInfo@@QEAAXXZ
?reset@SkMatrix@@QEAAAEAV1@XZ
?reset@SkOpBuilder@@AEAAXXZ
?reset@SkPaint@@QEAAXXZ
?reset@SkPath@@QEAAAEAV1@XZ
?reset@SkPathBuilder@@QEAAAEAV1@XZ
?reset@SkPathRef@@QEAAXXZ
?reset@SkPixmap@@QEAAXAEBUSkImageInfo@@PEBX_K@Z
?reset@SkPixmap@@QEAAXXZ
?reset@SkPixmap@@QEAA_NAEBUSkMask@@@Z
?reset@SkString@@QEAAXXZ
?reset@SkTDStorage@@QEAAXXZ
?resetCanvas@SkNoDrawCanvas@@QEAAXAEBUSkIRect@@@Z
?resetCanvas@SkNoDrawCanvas@@QEAAXHH@Z
?resetContext@GrDirectContext@@QEAAXI@Z
?resetErrors@Compiler@SkSL@@QEAAXXZ
?resetForNextPicture@SkCanvas@@AEAAXAEBUSkIRect@@@Z
?resetGLTextureBindings@GrDirectContext@@QEAAXXZ
?resetMatrix@SkCanvas@@QEAAXXZ
?resetToSize@SkPathRef@@AEAAXHHHHHH@Z
?resize@SkString@@QEAAX_K@Z
?resize@SkTDStorage@@QEAAXH@Z
?resolve@SkOpBuilder@@QEAA?AV?$optional@VSkPath@@@std@@XZ
?resolve@SkOpBuilder@@QEAA_NPEAVSkPath@@@Z
?restore@Sk3DView@@QEAAXXZ
?restore@SkCanvas@@QEAAXXZ
?restoreMutability@SkPixelRef@@AEAAXXZ
?restoreToCount@SkCanvas@@QEAAXH@Z
?rewind@Iterator@SkRegion@@QEAA_NXZ
?rewind@SkFILEStream@@UEAA_NXZ
?rewind@SkMemoryStream@@UEAA_NXZ
?rewind@SkStream@@UEAA_NXZ
?rewindIfNeeded@SkCodec@@IEAA_NXZ
?rewindStream@SkCodec@@IEAA_NXZ
?rgn@Iterator@SkRegion@@QEBAPEBV2@XZ
?right@SkIRect@@QEBAHXZ
?right@SkRect@@QEBAMXZ
?rootDevice@SkCanvas@@AEBAPEAVSkDevice@@XZ
?rotate@SkCanvas@@QEAAXM@Z
?rotate@SkCanvas@@QEAAXMMM@Z
?rotateX@Sk3DView@@QEAAXM@Z
?rotateY@Sk3DView@@QEAAXM@Z
?rotateZ@Sk3DView@@QEAAXM@Z
?round@SkRect@@QEBA?AUSkIRect@@XZ
?round@SkRect@@QEBAXPEAUSkIRect@@@Z
?roundIn@SkRect@@QEBA?AUSkIRect@@XZ
?roundIn@SkRect@@QEBAXPEAUSkIRect@@@Z
?roundOut@SkRect@@QEBA?AUSkIRect@@XZ
?roundOut@SkRect@@QEBAXPEAU1@@Z
?roundOut@SkRect@@QEBAXPEAUSkIRect@@@Z
?roundUpCapacity@SkContainerAllocator@@AEBA_K_J@Z
?row@SkM44@@QEBA?AUSkV4@@H@Z
?rowBytes@SkBitmap@@QEBA_KXZ
?rowBytes@SkPixelRef@@QEBA_KXZ
?rowBytes@SkPixmap@@QEBA_KXZ
?rowBytes@SkYUVAPixmapInfo@@QEBA_KH@Z
?rowBytesAsPixels@SkBitmap@@QEBAHXZ
?rowBytesAsPixels@SkPixmap@@QEBAHXZ
?runInliner@Compiler@SkSL@@AEAA_NPEAVInliner@2@AEBV?$vector@V?$unique_ptr@VProgramElement@SkSL@@U?$default_delete@VProgramElement@SkSL@@@std@@@std@@V?$allocator@V?$unique_ptr@VProgramElement@SkSL@@U?$default_delete@VProgramElement@SkSL@@@std@@@std@@@2@@std@@PEAVSymbolTable@2@PEAVProgramUsage@2@@Z
?runInliner@Compiler@SkSL@@QEAAXAEAUProgram@2@@Z
?sInliner@Compiler@SkSL@@0W4OverrideFlag@12@A
?sOptimizer@Compiler@SkSL@@0W4OverrideFlag@12@A
?sampleCnt@GrBackendRenderTarget@@QEBAHXZ
?sampleCount@GrSurfaceCharacterization@@QEBAHXZ
?samplesOutsideMain@SkRuntimeEffect@@AEBA_NXZ
?save@Sk3DView@@QEAAXXZ
?save@SkCanvas@@QEAAHXZ
?saveLayer@SkCanvas@@QEAAHAEBUSaveLayerRec@1@@Z
?saveLayer@SkCanvas@@QEAAHAEBUSkRect@@PEBVSkPaint@@@Z
?saveLayer@SkCanvas@@QEAAHPEBUSkRect@@PEBVSkPaint@@@Z
?saveLayerAlpha@SkCanvas@@QEAAHPEBUSkRect@@I@Z
?saveLayerAlphaf@SkCanvas@@QEAAHPEBUSkRect@@M@Z
?scalarsPerGlyph@SkTextBlobRunIterator@@QEBAIXZ
?scale@SkCanvas@@QEAAXMM@Z
?scale@SkPoint3@@QEAAXM@Z
?scale@SkPoint@@QEAAXM@Z
?scale@SkPoint@@QEBAXMPEAU1@@Z
?scalePixels@SkImage@@QEBA_NAEBVSkPixmap@@AEBUSkSamplingOptions@@W4CachingHint@1@@Z
?scalePixels@SkPixmap@@QEBA_NAEBV1@AEBUSkSamplingOptions@@@Z
?scaleRadii@SkRRect@@AEAA_NXZ
?seek@SkFILEStream@@UEAA_N_K@Z
?seek@SkMemoryStream@@UEAA_N_K@Z
?seek@SkStream@@UEAA_N_K@Z
?serialize@ContentLightLevelInformation@skhdr@@QEBA?AV?$sk_sp@VSkData@@@@XZ
?serialize@MasteringDisplayColorVolume@skhdr@@QEBA?AV?$sk_sp@VSkData@@@@XZ
?serialize@SkColorSpace@@QEBA?AV?$sk_sp@VSkData@@@@XZ
?serialize@SkFlattenable@@QEBA?AV?$sk_sp@VSkData@@@@PEBUSkSerialProcs@@@Z
?serialize@SkFlattenable@@QEBA_KPEAX_KPEBUSkSerialProcs@@@Z
?serialize@SkPath@@QEBA?AV?$sk_sp@VSkData@@@@XZ
?serialize@SkPicture@@AEBAXPEAVSkWStream@@PEBUSkSerialProcs@@PEAVSkRefCntSet@@_N@Z
?serialize@SkPicture@@QEBA?AV?$sk_sp@VSkData@@@@PEBUSkSerialProcs@@@Z
?serialize@SkPicture@@QEBAXPEAVSkWStream@@PEBUSkSerialProcs@@@Z
?serialize@SkTextBlob@@QEBA?AV?$sk_sp@VSkData@@@@AEBUSkSerialProcs@@@Z
?serialize@SkTextBlob@@QEBA_KAEBUSkSerialProcs@@PEAX_K@Z
?serialize@SkTypeface@@QEBA?AV?$sk_sp@VSkData@@@@W4SerializeBehavior@1@@Z
?serialize@SkTypeface@@QEBAXPEAVSkWStream@@W4SerializeBehavior@1@@Z
?serialize@Slug@gpu@sktext@@QEBA?AV?$sk_sp@VSkData@@@@XZ
?serialize@Slug@gpu@sktext@@QEBA_KPEAX_K@Z
?serializePngChunk@ContentLightLevelInformation@skhdr@@QEBA?AV?$sk_sp@VSkData@@@@XZ
?set9@SkMatrix@@QEAAAEAV1@QEBM@Z
?set@GrSurfaceCharacterization@@AEAAXV?$sk_sp@VGrContextThreadSafeProxy@@@@_KAEBUSkImageInfo@@AEBVGrBackendFormat@@W4GrSurfaceOrigin@@HW4Textureable@1@W4Mipmapped@skgpu@@W4UsesGLFBO0@1@W4VkRTSupportsInputAttachment@1@W4VulkanSecondaryCBCompatible@1@W4Protected@8@AEBVSkSurfaceProps@@@Z
?set@MutableTextureState@skgpu@@QEAAXAEBV12@@Z
?set@SkMatrix@@QEAAAEAV1@HM@Z
?set@SkPoint3@@QEAAXMMM@Z
?set@SkPoint@@QEAAXMM@Z
?set@SkRSXform@@QEAAXMMMM@Z
?set@SkRect@@QEAAXAEBUSkIRect@@@Z
?set@SkRect@@QEAAXAEBUSkPoint@@0@Z
?set@SkRegion@@QEAA_NAEBV1@@Z
?set@SkString@@QEAAXAEBV1@@Z
?set@SkString@@QEAAXQEBD@Z
?set@SkString@@QEAAXQEBD_K@Z
?set@SkString@@QEAAXV?$basic_string_view@DU?$char_traits@D@std@@@std@@@Z
?setARGB@SkPaint@@QEAAXIIII@Z
?setAbs@SkPoint@@QEAAXAEBU1@@Z
?setAffine@SkMatrix@@QEAAAEAV1@QEBM@Z
?setAll@SkMatrix@@QEAAAEAV1@MMMMMMMMM@Z
?setAlpha@SkPaint@@QEAAXI@Z
?setAlphaType@SkBitmap@@QEAA_NW4SkAlphaType@@@Z
?setAlphaf@SkPaint@@QEAAXM@Z
?setAntiAlias@SkPaint@@QEAAX_N@Z
?setBackendRenderTargetState@GrDirectContext@@QEAA_NAEBVGrBackendRenderTarget@@AEBVMutableTextureState@skgpu@@PEAV34@P6AXPEAX@Z3@Z
?setBackendTextureState@GrDirectContext@@QEAA_NAEBVGrBackendTexture@@AEBVMutableTextureState@skgpu@@PEAV34@P6AXPEAX@Z3@Z
?setBaselineSnap@SkFont@@QEAAX_N@Z
?setBlendMode@SkPaint@@QEAAXW4SkBlendMode@@@Z
?setBlender@SkPaint@@QEAAXV?$sk_sp@VSkBlender@@@@@Z
?setBounds@SkPathRef@@AEAAXAEBUSkRect@@@Z
?setBounds@SkRect@@QEAAXV?$SkSpan@$$CBUSkPoint@@@@@Z
?setBoundsCheck@SkRect@@QEAA_NV?$SkSpan@$$CBUSkPoint@@@@@Z
?setBoundsNoCheck@SkRect@@QEAAXV?$SkSpan@$$CBUSkPoint@@@@@Z
?setCol@SkM44@@QEAAXHAEBUSkV4@@@Z
?setColor4f@SkPaint@@QEAAXAEBU?$SkRGBA4f@$02@@PEAVSkColorSpace@@@Z
?setColor@SkPaint@@QEAAXAEBU?$SkRGBA4f@$02@@PEAVSkColorSpace@@@Z
?setColor@SkPaint@@QEAAXI@Z
?setColorFilter@SkPaint@@QEAAXV?$sk_sp@VSkColorFilter@@@@@Z
?setColorSpace@SkBitmap@@QEAAXV?$sk_sp@VSkColorSpace@@@@@Z
?setColorSpace@SkPixmap@@QEAAXV?$sk_sp@VSkColorSpace@@@@@Z
?setConcat@SkColorMatrix@@QEAAXAEBV1@0@Z
?setConcat@SkM44@@QEAAAEAV1@AEBV1@0@Z
?setConcat@SkMatrix@@QEAAAEAV1@AEBV1@0@Z
?setContentLightLevelInformation@Metadata@skhdr@@QEAAXAEBUContentLightLevelInformation@2@@Z
?setConvexity@SkPath@@AEBAXW4SkPathConvexity@@@Z
?setData@SkMemoryStream@@QEAAXV?$sk_sp@$$CBVSkData@@@@@Z
?setDither@SkPaint@@QEAAX_N@Z
?setEdging@SkFont@@QEAAXW4Edging@1@@Z
?setEmbeddedBitmaps@SkFont@@QEAAX_N@Z
?setEmbolden@SkFont@@QEAAX_N@Z
?setEmpty@SkIRect@@QEAAXXZ
?setEmpty@SkRRect@@QEAAXXZ
?setEmpty@SkRect@@QEAAXXZ
?setEmpty@SkRegion@@QEAA_NXZ
?setFillStyle@SkStrokeRec@@QEAAXXZ
?setFillType@SkPath@@QEAAXW4SkPathFillType@@@Z
?setFillType@SkPathBuilder@@QEAAAEAV1@W4SkPathFillType@@@Z
?setFilterMode@SkAnimatedImage@@QEAAXW4SkFilterMode@@@Z
?setFontStyle@SkCustomTypefaceBuilder@@QEAAXVSkFontStyle@@@Z
?setFontStyle@SkTypeface@@IEAAXVSkFontStyle@@@Z
?setForceAutoHinting@SkFont@@QEAAX_N@Z
?setGlyph@SkCustomTypefaceBuilder@@QEAAXGMAEBVSkPath@@@Z
?setGlyph@SkCustomTypefaceBuilder@@QEAAXGMV?$sk_sp@VSkDrawable@@@@AEBUSkRect@@@Z
?setHairlineStyle@SkStrokeRec@@QEAAXXZ
?setHinting@SkFont@@QEAAXW4SkFontHinting@@@Z
?setIWH@SkRect@@QEAAXHH@Z
?setIdentity@SkColorMatrix@@QEAAXXZ
?setIdentity@SkM44@@QEAAAEAV1@XZ
?setIdentity@SkMatrix@@QEAAAEAV1@XZ
?setIdentity@SkRSXform@@QEAAXXZ
?setImageFilter@SkPaint@@QEAAXV?$sk_sp@VSkImageFilter@@@@@Z
?setImmutable@SkBitmap@@QEAAXXZ
?setImmutable@SkPixelRef@@QEAAXXZ
?setImmutableWithID@SkPixelRef@@AEAAXI@Z
?setInfo@SkBitmap@@QEAA_NAEBUSkImageInfo@@_K@Z
?setIsFixedPitch@SkTypeface@@IEAAX_N@Z
?setIsOval@SkPathRef@@AEAAXW4SkPathDirection@@I@Z
?setIsRRect@SkPathRef@@AEAAXW4SkPathDirection@@I@Z
?setIsVolatile@SkPath@@QEAAAEAV1@_N@Z
?setIsVolatile@SkPathBuilder@@QEAAAEAV1@_N@Z
?setLTRB@SkIRect@@QEAAXHHHH@Z
?setLTRB@SkRect@@QEAAXMMMM@Z
?setLastPt@SkPathBuilder@@QEAAXMM@Z
?setLength@SkPoint@@QEAA_NM@Z
?setLength@SkPoint@@QEAA_NMMM@Z
?setLinearMetrics@SkFont@@QEAAX_N@Z
?setMaskFilter@SkPaint@@QEAAXV?$sk_sp@VSkMaskFilter@@@@@Z
?setMasteringDisplayColorVolume@Metadata@skhdr@@QEAAXAEBUMasteringDisplayColorVolume@2@@Z
?setMatrix@SkCanvas@@QEAAXAEBVSkM44@@@Z
?setMatrix@SkCanvas@@QEAAXAEBVSkMatrix@@@Z
?setMemory@SkMemoryStream@@UEAAXPEBX_K_N@Z
?setMemoryOwned@SkMemoryStream@@QEAAXPEBX_K@Z
?setMetrics@SkCustomTypefaceBuilder@@QEAAXAEBUSkFontMetrics@@M@Z
?setMutableState@GrBackendRenderTarget@@QEAAXAEBVMutableTextureState@skgpu@@@Z
?setMutableState@GrBackendTexture@@QEAAXAEBVMutableTextureState@skgpu@@@Z
?setNinePatch@SkRRect@@QEAAXAEBUSkRect@@MMMM@Z
?setNormalize@SkPoint@@QEAA_NMM@Z
?setOval@SkRRect@@QEAAXAEBUSkRect@@@Z
?setPath@Iter@SkPath@@QEAAXAEBV2@_N@Z
?setPath@RawIter@SkPath@@QEAAXAEBV2@@Z
?setPath@SkPathMeasure@@QEAAXPEBVSkPath@@_N@Z
?setPath@SkRegion@@QEAA_NAEBVSkPath@@AEBV1@@Z
?setPathEffect@SkPaint@@QEAAXV?$sk_sp@VSkPathEffect@@@@@Z
?setPerspX@SkMatrix@@QEAAAEAV1@M@Z
?setPerspY@SkMatrix@@QEAAAEAV1@M@Z
?setPixelRef@SkBitmap@@QEAAXV?$sk_sp@VSkPixelRef@@@@HH@Z
?setPixels@SkBitmap@@QEAAXPEAX@Z
?setPoint@SkPathBuilder@@QEAAX_KUSkPoint@@@Z
?setPolyToPoly@SkMatrix@@QEAA_NV?$SkSpan@$$CBUSkPoint@@@@0@Z
?setRC@SkM44@@QEAAXHHM@Z
?setRSXform@SkMatrix@@QEAAAEAV1@AEBUSkRSXform@@@Z
?setRect@SkRRect@@QEAAXAEBUSkRect@@@Z
?setRect@SkRegion@@QEAA_NAEBUSkIRect@@@Z
?setRectRadii@SkRRect@@QEAAXAEBUSkRect@@QEBUSkPoint@@@Z
?setRectToRect@SkMatrix@@QEAA_NAEBUSkRect@@0W4ScaleToFit@1@@Z
?setRectXY@SkRRect@@QEAAXAEBUSkRect@@MM@Z
?setRects@SkRegion@@QEAA_NQEBUSkIRect@@H@Z
?setRegion@SkRegion@@QEAA_NAEBV1@@Z
?setRepetitionCount@SkAnimatedImage@@QEAAXH@Z
?setResScale@SkStrokeRec@@QEAAXM@Z
?setResourceCacheLimit@GrDirectContext@@QEAAX_K@Z
?setResourceCacheLimits@GrDirectContext@@QEAAXH_K@Z
?setRotate@SkM44@@QEAAAEAV1@USkV3@@M@Z
?setRotate@SkMatrix@@QEAAAEAV1@M@Z
?setRotate@SkMatrix@@QEAAAEAV1@MMM@Z
?setRotateUnit@SkM44@@QEAAAEAV1@USkV3@@M@Z
?setRotateUnitSinCos@SkM44@@QEAAAEAV1@USkV3@@MM@Z
?setRow@SkM44@@QEAAXHAEBUSkV4@@@Z
?setRowMajor@SkColorMatrix@@QEAAXQEBM@Z
?setRuns@SkRegion@@AEAA_NQEAHH@Z
?setSaturation@SkColorMatrix@@QEAAXM@Z
?setScale@SkColorMatrix@@QEAAXMMMM@Z
?setScale@SkM44@@QEAAAEAV1@MMM@Z
?setScale@SkMatrix@@QEAAAEAV1@MM@Z
?setScale@SkMatrix@@QEAAAEAV1@MMMM@Z
?setScaleTranslate@SkMatrix@@QEAAXMMMM@Z
?setScaleX@SkFont@@QEAAXM@Z
?setScaleX@SkMatrix@@QEAAAEAV1@M@Z
?setScaleY@SkMatrix@@QEAAAEAV1@M@Z
?setSerializedAgtm@Metadata@skhdr@@QEAAXV?$sk_sp@$$CBVSkData@@@@@Z
?setShader@SkPaint@@QEAAXV?$sk_sp@VSkShader@@@@@Z
?setSinCos@SkMatrix@@QEAAAEAV1@MM@Z
?setSinCos@SkMatrix@@QEAAAEAV1@MMMM@Z
?setSize@SkFont@@QEAAXM@Z
?setSize@SkIRect@@QEAAXUSkISize@@@Z
?setSkew@SkMatrix@@QEAAAEAV1@MM@Z
?setSkew@SkMatrix@@QEAAAEAV1@MMMM@Z
?setSkewX@SkFont@@QEAAXM@Z
?setSkewX@SkMatrix@@QEAAAEAV1@M@Z
?setSkewY@SkMatrix@@QEAAAEAV1@M@Z
?setStroke@SkPaint@@QEAAX_N@Z
?setStrokeCap@SkPaint@@QEAAXW4Cap@1@@Z
?setStrokeJoin@SkPaint@@QEAAXW4Join@1@@Z
?setStrokeMiter@SkPaint@@QEAAXM@Z
?setStrokeParams@SkStrokeRec@@QEAAXW4Cap@SkPaint@@W4Join@3@M@Z
?setStrokeStyle@SkStrokeRec@@QEAAXM_N@Z
?setStrokeWidth@SkPaint@@QEAAXM@Z
?setStyle@SkPaint@@QEAAXW4Style@1@@Z
?setSubpixel@SkFont@@QEAAX_N@Z
?setSurfaceBase@SkCanvas@@AEAAXPEAVSkSurface_Base@@@Z
?setTemporarilyImmutable@SkPixelRef@@AEAAXXZ
?setTranslate@SkM44@@QEAAAEAV1@MMM@Z
?setTranslate@SkMatrix@@QEAAAEAV1@AEBUSkPoint@@@Z
?setTranslate@SkMatrix@@QEAAAEAV1@MM@Z
?setTranslateX@SkMatrix@@QEAAAEAV1@M@Z
?setTranslateY@SkMatrix@@QEAAAEAV1@M@Z
?setTypeMask@SkMatrix@@AEAAXH@Z
?setTypeface@SkFont@@QEAAXV?$sk_sp@VSkTypeface@@@@@Z
?setWH@SkIRect@@QEAAXHH@Z
?setWH@SkRect@@QEAAXMM@Z
?setXYWH@SkIRect@@QEAAXHHHH@Z
?setXYWH@SkRect@@QEAAXMMMM@Z
?setupForAsPaths@SkFont@@AEAAMPEAVSkPaint@@@Z
?shader@ChildPtr@SkRuntimeEffect@@QEBAPEAVSkShader@@XZ
?shareSubset@SkData@@QEAA?AV?$sk_sp@VSkData@@@@_K0@Z
?shiftPerPixel@SkBitmap@@QEBAHXZ
?shiftPerPixel@SkColorInfo@@QEBAHXZ
?shiftPerPixel@SkImageInfo@@QEBAHXZ
?shiftPerPixel@SkPixmap@@QEBAHXZ
?shouldDumpSizelessObjects@SkTraceMemoryDump@@UEBA_NXZ
?shouldDumpUnbudgetedObjects@SkTraceMemoryDump@@UEBA_NXZ
?shouldDumpWrappedObjects@SkTraceMemoryDump@@UEBA_NXZ
?shrink_to_fit@SkTDStorage@@QEAAXXZ
?simple@SkAnimatedImage@@AEBA_NXZ
?sitingX@SkYUVAInfo@@QEBA?AW4Siting@1@XZ
?sitingY@SkYUVAInfo@@QEBA?AW4Siting@1@XZ
?size@SkData@@QEBA_KXZ
?size@SkIRect@@QEBA?AUSkISize@@XZ
?size@SkString@@QEBA_KXZ
?size@SkTDStorage@@QEBAHXZ
?sizeInBytes@Uniform@SkRuntimeEffect@@QEBA_KXZ
?size_bytes@SkTDStorage@@QEBA_KXZ
?skCapabilities@GrRecordingContext@@QEBA?AV?$sk_sp@$$CBVSkCapabilities@@@@XZ
?sk_abort_no_print@@YAXXZ
?sk_calloc_throw@@YAPEAX_K0@Z
?sk_collection_not_empty@@YAX_N@Z
?sk_free@@YAXPEAX@Z
?sk_malloc_canfail@@YAPEAX_K0@Z
?sk_malloc_flags@@YAPEAX_KI@Z
?sk_malloc_size@@YA_KPEAX_K@Z
?sk_malloc_throw@@YAPEAX_K0@Z
?sk_out_of_memory@@YAXXZ
?sk_print_index_out_of_bounds@@YAX_K0@Z
?sk_print_length_too_big@@YAX_K0@Z
?sk_print_size_too_big@@YAX_K0@Z
?sk_realloc_throw@@YAPEAXPEAX_K1@Z
?sk_realloc_throw@@YAPEAXPEAX_K@Z
?sk_report_container_overflow_and_die@@YAXXZ
?skew@SkCanvas@@QEAAXMM@Z
?skip@SkStream@@QEAA_K_K@Z
?skipScanlines@SkCodec@@QEAA_NH@Z
?skslVersion@SkCapabilities@@QEBA?AW4Version@SkSL@@XZ
?slant@SkFontStyle@@QEBA?AW4Slant@1@XZ
?snapGpuDrawHandler@SkDrawable@@QEAA?AV?$unique_ptr@VGpuDrawHandler@SkDrawable@@U?$default_delete@VGpuDrawHandler@SkDrawable@@@std@@@std@@W4GrBackendApi@@AEBVSkMatrix@@AEBUSkIRect@@AEBUSkImageInfo@@@Z
?snapshot@SkPath@@QEBA?AV1@XZ
?snapshot@SkPathBuilder@@QEBA?AVSkPath@@PEBVSkMatrix@@@Z
?snapshotData@SkPathBuilder@@QEBA?AV?$sk_sp@VSkPathData@@@@XZ
?sort@SkIRect@@QEAAXXZ
?sort@SkRect@@QEAAXXZ
?source@SkRuntimeEffect@@QEBAAEBV?$basic_string@DU?$char_traits@D@std@@V?$allocator@D@2@@std@@XZ
?spec@SkMesh@@QEBAPEAVSkMeshSpecification@@XZ
?startIncrementalDecode@SkCodec@@QEAA?AW4Result@1@AEBUSkImageInfo@@PEAX_K@Z
?startIncrementalDecode@SkCodec@@QEAA?AW4Result@1@AEBUSkImageInfo@@PEAX_KPEBUOptions@1@@Z
?startScanlineDecode@SkCodec@@QEAA?AW4Result@1@AEBUSkImageInfo@@@Z
?startScanlineDecode@SkCodec@@QEAA?AW4Result@1@AEBUSkImageInfo@@PEBUOptions@1@@Z
?startsWith@SkString@@QEBA_ND@Z
?startsWith@SkString@@QEBA_NQEBD@Z
?stencilBits@GrBackendRenderTarget@@QEBAHXZ
?store@PersistentCache@GrContextOptions@@UEAAXAEBVSkData@@0@Z
?store@PersistentCache@GrContextOptions@@UEAAXAEBVSkData@@0AEBVSkString@@@Z
?storeVkPipelineCacheData@GrDirectContext@@QEAAXXZ
?storeVkPipelineCacheData@GrDirectContext@@QEAAX_K@Z
?stream@SkCodec@@IEAAPEAVSkStream@@XZ
?stride@SkMeshSpecification@@QEBA_KXZ
?submit@GrDirectContext@@QEAA_NAEBUGrSubmitInfo@@@Z
?submit@GrDirectContext@@QEAA_NW4GrSyncCpu@@@Z
?subsampling@SkYUVAInfo@@QEBA?AW4Subsampling@1@XZ
?supported@SupportedDataTypes@SkYUVAPixmapInfo@@QEBA_NW4PlaneConfig@SkYUVAInfo@@W4DataType@2@@Z
?supportedGpuStats@GrDirectContext@@QEBA?AW4GpuStatsFlags@skgpu@@XZ
?supportsDistanceFieldText@GrDirectContext@@QEBA_NXZ
?supportsProtectedContent@GrRecordingContext@@QEBA_NXZ
?surfaceProps@GrSurfaceCharacterization@@QEBAAEBVSkSurfaceProps@@XZ
?swap@SkBitmap@@QEAAXAEAV1@@Z
?swap@SkPath@@QEAAXAEAV1@@Z
?swap@SkRegion@@QEAAXAEAV1@@Z
?swap@SkString@@QEAAXAEAV1@@Z
?swap@SkTDStorage@@QEAAXAEAV1@@Z
?symbolTable@Compiler@SkSL@@QEAAPEAVSymbolTable@2@XZ
?syncAllOutstandingGpuWork@GrDirectContext@@AEAAX_N@Z
?temporary_internal_getRgnClip@SkCanvas@@QEAAXPEAVSkRegion@@@Z
?texCoords@Builder@SkVertices@@QEAAPEAUSkPoint@@XZ
?text@SkTextBlobRunIterator@@QEBAPEADXZ
?textContrast@SkSurfaceProps@@QEBAMXZ
?textGamma@SkSurfaceProps@@QEBAMXZ
?textSize@SkTextBlobRunIterator@@QEBAIXZ
?textToGlyphs@SkFont@@QEBA_KPEBX_KW4SkTextEncoding@@V?$SkSpan@G@@@Z
?textToGlyphs@SkTypeface@@QEBA_KPEBX_KW4SkTextEncoding@@V?$SkSpan@G@@@Z
?texture@GrYUVABackendTextures@@QEBA?AVGrBackendTexture@@H@Z
?textureOrigin@GrYUVABackendTextureInfo@@QEBA?AW4GrSurfaceOrigin@@XZ
?textureOrigin@GrYUVABackendTextures@@QEBA?AW4GrSurfaceOrigin@@XZ
?textureType@GrBackendFormat@@QEBA?AW4GrTextureType@@XZ
?textureType@GrBackendTexture@@QEBA?AW4GrTextureType@@XZ
?textures@GrYUVABackendTextures@@QEBAAEBV?$array@VGrBackendTexture@@$03@std@@XZ
?threadSafeProxy@GrDirectContext@@QEAA?AV?$sk_sp@VGrContextThreadSafeProxy@@@@XZ
?toBytes_RGBA@?$SkRGBA4f@$02@@QEBAIXZ
?toProfile@SkColorSpace@@QEBAXPEAUskcms_ICCProfile@@@Z
?toQuad@SkRSXform@@QEBAXAEBUSkSize@@QEAUSkPoint@@@Z
?toQuad@SkRSXform@@QEBAXMMQEAUSkPoint@@@Z
?toQuad@SkRect@@QEBA?AV?$array@USkPoint@@$03@std@@W4SkPathDirection@@@Z
?toQuad@SkRect@@QEBAXQEAUSkPoint@@@Z
?toSkColor@?$SkRGBA4f@$02@@QEBAIXZ
?toStr@GrBackendFormat@@QEBA?AVSkString@@XZ
?toString@ContentLightLevelInformation@skhdr@@QEBA?AVSkString@@XZ
?toString@MasteringDisplayColorVolume@skhdr@@QEBA?AVSkString@@XZ
?toString@Metadata@skhdr@@QEBA?AVSkString@@XZ
?toTriStrip@SkRSXform@@QEBAXMMQEAUSkPoint@@@Z
?toXYZD50@SkColorSpace@@QEBA_NPEAUskcms_Matrix3x3@@@Z
?toXYZD50@SkColorSpacePrimaries@@QEBA_NPEAUskcms_Matrix3x3@@@Z
?toXYZD50Hash@SkColorSpace@@QEBAIXZ
?toYUVALocations@GrYUVABackendTextureInfo@@QEBA?AV?$array@UYUVALocation@SkYUVAInfo@@$03@std@@XZ
?toYUVALocations@GrYUVABackendTextures@@QEBA?AV?$array@UYUVALocation@SkYUVAInfo@@$03@std@@XZ
?toYUVALocations@SkYUVAInfo@@QEBA?AV?$array@UYUVALocation@SkYUVAInfo@@$03@std@@PEBI@Z
?toYUVALocations@SkYUVAPixmaps@@QEBA?AV?$array@UYUVALocation@SkYUVAInfo@@$03@std@@XZ
?toggleInverseFillType@SkPath@@QEAAXXZ
?toggleInverseFillType@SkPathBuilder@@QEAAAEAV1@XZ
?top@SkIRect@@QEBAHXZ
?top@SkRect@@QEBAMXZ
?topDevice@SkCanvas@@AEBAPEAVSkDevice@@XZ
?topLeft@SkIRect@@QEBA?AUSkIPoint@@XZ
?transferFn@SkColorSpace@@QEBAXPEAUskcms_TransferFunction@@@Z
?transferFn@SkColorSpace@@QEBAXQEAM@Z
?transferFnHash@SkColorSpace@@QEBAIXZ
?transform@SkPathBuilder@@QEAAAEAV1@AEBVSkMatrix@@@Z
?transform@SkRRect@@QEBA?AV?$optional@VSkRRect@@@std@@AEBVSkMatrix@@@Z
?transform@SkRRect@@QEBA_NAEBVSkMatrix@@PEAV1@@Z
?translate@Sk3DView@@QEAAXMMM@Z
?translate@SkCanvas@@QEAAXMM@Z
?translate@SkRegion@@QEAAXHH@Z
?translate@SkRegion@@QEBAXHHPEAV1@@Z
?translateTypefaceID@SkStrikeClient@@QEBA_NPEAVSkAutoDescriptor@@@Z
?transpose@SkM44@@QEBA?AV1@XZ
?tryAllocN32Pixels@SkBitmap@@QEAA_NHH_N@Z
?tryAllocPixels@SkBitmap@@QEAA_NAEBUSkImageInfo@@@Z
?tryAllocPixels@SkBitmap@@QEAA_NAEBUSkImageInfo@@_K@Z
?tryAllocPixels@SkBitmap@@QEAA_NPEAVAllocator@1@@Z
?tryAllocPixels@SkBitmap@@QEAA_NXZ
?tryAllocPixelsFlags@SkBitmap@@QEAA_NAEBUSkImageInfo@@I@Z
?tryMakeOffset@SkPath@@QEBA?AV?$optional@VSkPath@@@std@@MM@Z
?tryMakeScale@SkPath@@QEBA?AV?$optional@VSkPath@@@std@@MM@Z
?tryMakeTransform@SkPath@@QEBA?AV?$optional@VSkPath@@@std@@AEBVSkMatrix@@@Z
?try_ref@SkWeakRefCnt@@QEBA_NXZ
?try_wait@SkSemaphore@@QEAA_NXZ
?type@ChildPtr@SkRuntimeEffect@@QEBA?AV?$optional@W4ChildType@SkRuntimeEffect@@@std@@XZ
?type@Recorder@skcpu@@UEBA?AW4Type@SkRecorder@@XZ
?type@SkRRect@@QEBA?AW4Type@1@XZ
?unicharToGlyph@SkFont@@QEBAGH@Z
?unicharToGlyph@SkTypeface@@QEBAGH@Z
?unicharsToGlyphs@SkFont@@QEBAXV?$SkSpan@$$CBH@@V?$SkSpan@G@@@Z
?unicharsToGlyphs@SkTypeface@@QEBAXV?$SkSpan@$$CBH@@V?$SkSpan@G@@@Z
?uniform@SkRuntimeEffectBuilder@@QEAA?AUBuilderUniform@1@V?$basic_string_view@DU?$char_traits@D@std@@@std@@@Z
?uniformSize@SkMeshSpecification@@QEBA_KXZ
?uniformSize@SkRuntimeEffect@@QEBA_KXZ
?uniforms@SkMesh@@QEBAPEBVSkData@@XZ
?uniforms@SkMeshSpecification@@QEBA?AV?$SkSpan@$$CBUUniform@SkRuntimeEffect@@@@XZ
?uniforms@SkRuntimeEffect@@QEBA?AV?$SkSpan@$$CBUUniform@SkRuntimeEffect@@@@XZ
?uniforms@SkRuntimeEffectBuilder@@QEBA?AV?$sk_sp@$$CBVSkData@@@@XZ
?unique@?$SkNVRefCnt@VGrContextThreadSafeProxy@@@@QEBA_NXZ
?unique@?$SkNVRefCnt@VGrPromiseImageTexture@@@@QEBA_NXZ
?unique@?$SkNVRefCnt@VSkColorSpace@@@@QEBA_NXZ
?unique@?$SkNVRefCnt@VSkData@@@@QEBA_NXZ
?unique@?$SkNVRefCnt@VSkMeshSpecification@@@@QEBA_NXZ
?unique@?$SkNVRefCnt@VSkPathRef@@@@QEBA_NXZ
?unique@?$SkNVRefCnt@VSkTextBlob@@@@QEBA_NXZ
?unique@?$SkNVRefCnt@VSkVertices@@@@QEBA_NXZ
?unique@SkRefCntBase@@QEBA_NXZ
?uniqueID@SkImage@@QEBAIXZ
?uniqueID@SkImageGenerator@@QEBAIXZ
?uniqueID@SkPicture@@QEBAIXZ
?uniqueID@SkTextBlob@@QEBAIXZ
?uniqueID@SkTypeface@@QEBAIXZ
?uniqueID@SkVertices@@QEBAIXZ
?uniqueID@Slug@gpu@sktext@@QEBAIXZ
?unref@?$SkNVRefCnt@VGrContextThreadSafeProxy@@@@QEBAXXZ
?unref@?$SkNVRefCnt@VGrPromiseImageTexture@@@@QEBAXXZ
?unref@?$SkNVRefCnt@VSkColorSpace@@@@QEBAXXZ
?unref@?$SkNVRefCnt@VSkData@@@@QEBAXXZ
?unref@?$SkNVRefCnt@VSkMeshSpecification@@@@QEBAXXZ
?unref@?$SkNVRefCnt@VSkPathRef@@@@QEBAXXZ
?unref@?$SkNVRefCnt@VSkTextBlob@@@@QEBAXXZ
?unref@?$SkNVRefCnt@VSkVertices@@@@QEBAXXZ
?unref@SkRefCntBase@@QEBAXXZ
?updateBackendTexture@GrDirectContext@@QEAA_NAEBVGrBackendTexture@@AEBU?$SkRGBA4f@$02@@P6AXPEAX@Z2@Z
?updateBackendTexture@GrDirectContext@@QEAA_NAEBVGrBackendTexture@@AEBVSkPixmap@@W4GrSurfaceOrigin@@P6AXPEAX@Z3@Z
?updateBackendTexture@GrDirectContext@@QEAA_NAEBVGrBackendTexture@@QEBVSkPixmap@@HP6AXPEAX@Z2@Z
?updateBackendTexture@GrDirectContext@@QEAA_NAEBVGrBackendTexture@@QEBVSkPixmap@@HW4GrSurfaceOrigin@@P6AXPEAX@Z3@Z
?updateBackendTexture@GrDirectContext@@QEAA_NAEBVGrBackendTexture@@W4SkColorType@@AEBU?$SkRGBA4f@$02@@P6AXPEAX@Z3@Z
?updateBoundsCache@SkPath@@QEBAXXZ
?updateCompressedBackendTexture@GrDirectContext@@QEAA_NAEBVGrBackendTexture@@AEBU?$SkRGBA4f@$02@@P6AXPEAX@Z2@Z
?updateCompressedBackendTexture@GrDirectContext@@QEAA_NAEBVGrBackendTexture@@PEBX_KP6AXPEAX@Z3@Z
?updateDeferredBounds@SkTextBlobBuilder@@AEAAXXZ
?updateTranslateMask@SkMatrix@@AEAAXXZ
?usesColorTransform@SkRuntimeEffect@@AEBA_NXZ
?usesColorXform@SkCodec@@MEBA_NXZ
?usesGLFBO0@GrSurfaceCharacterization@@QEBA_NXZ
?usesSampleCoords@SkRuntimeEffect@@AEBA_NXZ
?validRowBytes@SkImageInfo@@QEBA_N_K@Z
?validate@SkDynamicMemoryWStream@@AEBAXXZ
?validate@SkMesh@@AEBA?AV?$tuple@_NVSkString@@@std@@XZ
?validate@SkString@@AEAAAEAV1@XZ
?validate@SkString@@AEBAAEBV1@XZ
?validateClip@SkCanvas@@AEBAXXZ
?verbs@SkPath@@QEBA?AV?$SkSpan@$$CBW4SkPathVerb@@@@XZ
?verbs@SkPathBuilder@@QEBA?AV?$SkSpan@$$CBW4SkPathVerb@@@@XZ
?verbs@SkPathRef@@QEBA?AV?$SkSpan@$$CBW4SkPathVerb@@@@XZ
?verbsBegin@SkPathRef@@QEBAPEBW4SkPathVerb@@XZ
?verbsBeginWritable@SkPathRef@@AEAAPEAEXZ
?verbsEnd@SkPathRef@@QEBAPEBW4SkPathVerb@@XZ
?vertexBuffer@SkMesh@@QEBAPEAVVertexBuffer@1@XZ
?vertexCount@SkMesh@@QEBA_KXZ
?vertexOffset@SkMesh@@QEBA_KXZ
?vkRTSupportsInputAttachment@GrSurfaceCharacterization@@QEBA_NXZ
?vulkanSecondaryCBCompatible@GrSurfaceCharacterization@@QEBA_NXZ
?wait@GrDirectContext@@QEAA_NHPEBVGrBackendSemaphore@@_N@Z
?wait@SkSurface@@QEAA_NHPEBVGrBackendSemaphore@@_N@Z
?weak_dispose@SkWeakRefCnt@@MEBAXXZ
?weak_expired@SkWeakRefCnt@@QEBA_NXZ
?weak_ref@SkWeakRefCnt@@QEBAXXZ
?weak_unref@SkWeakRefCnt@@QEBAXXZ
?weight@SkFontStyle@@QEBAHXZ
?width64@SkIRect@@QEBA_JXZ
?width@GrBackendRenderTarget@@QEBAHXZ
?width@GrBackendTexture@@QEBAHXZ
?width@GrSurfaceCharacterization@@QEBAHXZ
?width@SkBitmap@@QEBAHXZ
?width@SkFontStyle@@QEBAHXZ
?width@SkIRect@@QEBAHXZ
?width@SkImage@@QEBAHXZ
?width@SkImageInfo@@QEBAHXZ
?width@SkPixelRef@@QEBAHXZ
?width@SkPixmap@@QEBAHXZ
?width@SkRRect@@QEBAMXZ
?width@SkRect@@QEBAMXZ
?width@SkSurface@@QEBAHXZ
?width@SkYUVAInfo@@QEBAHXZ
?willRestore@SkCanvas@@MEAAXXZ
?willRestore@SkNWayCanvas@@MEAAXXZ
?willSave@SkCanvas@@MEAAXXZ
?willSave@SkNWayCanvas@@MEAAXXZ
?withDefaultMipmaps@SkImage@@QEBA?AV?$sk_sp@VSkImage@@@@XZ
?withMipmaps@SkImage@@AEBA?AV?$sk_sp@VSkImage@@@@V?$sk_sp@VSkMipmap@@@@@Z
?wouldOverwriteEntireSurface@SkCanvas@@AEBA_NPEBUSkRect@@PEBVSkPaint@@V?$SkEnumBitMask@W4PredrawFlags@SkCanvas@@@@@Z
?writableUniformData@SkRuntimeEffectBuilder@@AEAAPEAXXZ
?writable_addr16@SkPixmap@@QEBAPEAGHH@Z
?writable_addr32@SkPixmap@@QEBAPEAIHH@Z
?writable_addr64@SkPixmap@@QEBAPEA_KHH@Z
?writable_addr8@SkPixmap@@QEBAPEAEHH@Z
?writable_addr@SkPixmap@@QEBAPEAXHH@Z
?writable_addr@SkPixmap@@QEBAPEAXXZ
?writable_addrF16@SkPixmap@@QEBAPEAGHH@Z
?writable_data@SkData@@QEAAPEAXXZ
?write16@SkWStream@@QEAA_NI@Z
?write32@SkWStream@@QEAA_NI@Z
?write64@SkWStream@@QEAA_N_K@Z
?write8@SkWStream@@QEAA_NI@Z
?write@SkDynamicMemoryWStream@@UEAA_NPEBX_K@Z
?write@SkFILEWStream@@UEAA_NPEBX_K@Z
?write@SkNullWStream@@UEAA_NPEBX_K@Z
?writeBigDecAsText@SkWStream@@QEAA_N_JH@Z
?writeBool@SkWStream@@QEAA_N_N@Z
?writeDecAsText@SkWStream@@QEAA_NH@Z
?writeErrorCount@Compiler@SkSL@@QEAAXXZ
?writeHexAsText@SkWStream@@QEAA_NIH@Z
?writePackedUInt@SkWStream@@QEAA_N_K@Z
?writePixels@SkBitmap@@QEAA_NAEBVSkPixmap@@@Z
?writePixels@SkBitmap@@QEAA_NAEBVSkPixmap@@HH@Z
?writePixels@SkCanvas@@QEAA_NAEBUSkImageInfo@@PEBX_KHH@Z
?writePixels@SkCanvas@@QEAA_NAEBVSkBitmap@@HH@Z
?writePixels@SkSurface@@QEAAXAEBVSkBitmap@@HH@Z
?writePixels@SkSurface@@QEAAXAEBVSkPixmap@@HH@Z
?writeScalar@SkWStream@@QEAA_NM@Z
?writeScalarAsText@SkWStream@@QEAA_NM@Z
?writeStream@SkWStream@@QEAA_NPEAVSkStream@@_K@Z
?writeStrikeData@SkStrikeServer@@QEAAXPEAV?$vector@EV?$allocator@E@std@@@std@@@Z
?writeText@SkWStream@@QEAA_NQEBD@Z
?writeToAndReset@SkDynamicMemoryWStream@@QEAA_NPEAV1@@Z
?writeToAndReset@SkDynamicMemoryWStream@@QEAA_NPEAVSkWStream@@@Z
?writeToMemory@SkColorSpace@@QEBA_KPEAX@Z
?writeToMemory@SkMatrix@@AEBA_KPEAX@Z
?writeToMemory@SkPath@@QEBA_KPEAX@Z
?writeToMemory@SkRRect@@QEBA_KPEAX@Z
?writeToMemory@SkRegion@@QEBA_KPEAX@Z
?writeToMemoryAsRRect@SkPath@@AEBA_KPEAX@Z
?writeToStream@SkDynamicMemoryWStream@@QEBA_NPEAVSkWStream@@@Z
?x@SkIRect@@QEBAHXZ
?x@SkPoint3@@QEBAMXZ
?x@SkPoint@@QEBAMXZ
?x@SkRect@@QEBAMXZ
?xformOnDecode@SkCodec@@IEBA_NXZ
?xforms@SkTextBlobRunIterator@@QEBAPEBUSkRSXform@@XZ
?y@SkIRect@@QEBAHXZ
?y@SkPoint3@@QEBAMXZ
?y@SkPoint@@QEBAMXZ
?y@SkRect@@QEBAMXZ
?yuvColorSpace@GrYUVABackendTextureInfo@@QEBA?AW4SkYUVColorSpace@@XZ
?yuvColorSpace@SkYUVAInfo@@QEBA?AW4SkYUVColorSpace@@XZ
?yuvColorSpace@SkYUVAPixmapInfo@@QEBA?AW4SkYUVColorSpace@@XZ
?yuvaInfo@GrYUVABackendTextureInfo@@QEBAAEBVSkYUVAInfo@@XZ
?yuvaInfo@GrYUVABackendTextures@@QEBAAEBVSkYUVAInfo@@XZ
?yuvaInfo@SkYUVAPixmapInfo@@QEBAAEBVSkYUVAInfo@@XZ
?yuvaInfo@SkYUVAPixmaps@@QEBAAEBVSkYUVAInfo@@XZ
?z@SkPoint3@@QEBAMXZ
